Script started on 2025-10-16 06:20:13+00:00 [TERM="xterm" TTY="/dev/pts/0" COLUMNS="80" LINES="24"]
[?2004h]0;chaehoon@chaehoon: ~/Projects/labschaehoon@chaehoon:~/Projects/labs$ gcc -c test.c tesst[K[Kt
[?2004l[01m[Kgcc:[m[K [01;35m[Kwarning: [m[Ktest: linker input file unused because linking not done
[01m[Kgcc:[m[K [01;31m[Kerror: [m[Ktest: linker input file not found: No such file or directory
[?2004h]0;chaehoon@chaehoon: ~/Projects/labschaehoon@chaehoon:~/Projects/labs$ gcc -c test.c test[C[1P[1@o[1@g[C[C[C[C[C[C[C[C[C[C[C[C
[?2004l/usr/bin/ld: cannot find test: No such file or directory
collect2: error: ld returned 1 exit status
[?2004h]0;chaehoon@chaehoon: ~/Projects/labschaehoon@chaehoon:~/Projects/labs$ gcc -og test.c test[1P test[1P test[1P test[1P test[1P test[1P test[1Ptest[1P test[1P test[1P testt teste tests testt test. testc test[C test- testo testg test[C[C[C[C[C
[?2004l/usr/bin/ld: cannot find test: No such file or directory
collect2: error: ld returned 1 exit status
[?2004h]0;chaehoon@chaehoon: ~/Projects/labschaehoon@chaehoon:~/Projects/labs$ gcc - [Kh[Kg test.c -o test
[?2004l[?2004h]0;chaehoon@chaehoon: ~/Projects/labschaehoon@chaehoon:~/Projects/labs$ gdb ./test
[?2004l[35;1mGNU gdb (Ubuntu 12.1-0ubuntu1~22.04.2) 12.1[m
Copyright (C) 2022 Free Software Foundation, Inc.
License GPLv3+: GNU GPL version 3 or later <http://gnu.org/licenses/gpl.html>
This is free software: you are free to change and redistribute it.
There is NO WARRANTY, to the extent permitted by law.
Type "show copying" and "show warranty" for details.
This GDB was configured as "x86_64-linux-gnu".
Type "show configuration" for configuration details.
For bug reporting instructions, please see:
<https://www.gnu.org/software/gdb/bugs/>.
Find the GDB manual and other documentation resources online at:
    <http://www.gnu.org/software/gdb/documentation/>.

For help, type "help".
Type "apropos word" to search for commands related to "word"...
Reading symbols from [32m./test[m...
[?2004h(gdb) break main
[?2004lBreakpoint 1 at [34m0x1155[m: file [32mtest.c[m, line 3.
[?2004h(gdb) r
[?2004lStarting program: [32m/home/chaehoon/Projects/labs/test[m 
[Thread debugging using libthread_db enabled]
Using host libthread_db library "[32m/lib/x86_64-linux-gnu/libthread_db.so.1[m".

Breakpoint 1, [33mmain[m () at [32mtest.c[m:3
3	[32mint[m [01mmain[m[31m([m[32mvoid[m[31m)[m [31m{[m
[?2004h[?2004l[?2004h(gdb) p &a[0]
[?2004l$1 = [34m0x7fffffffe393[m ""
[?2004h(gdb) [K(gdb) x/5xb &a[0]
[?2004l[34m0x7fffffffe393[m:	0x00	0x00	0x00	0x00	0x00
[?2004h(gdb) dis[K[K[Kdisas
[?2004lDump of assembler code for function [33mmain[m:
   [34m0x0000555555555149[m <+0>:	endbr64 
   [34m0x000055555555514d[m <+4>:	push   %rbp
   [34m0x000055555555514e[m <+5>:	mov    %rsp,%rbp
   [34m0x0000555555555151[m <+8>:	sub    $0x70,%rsp
=> [34m0x0000555555555155[m <+12>:	mov    %fs:0x28,%rax
   [34m0x000055555555515e[m <+21>:	mov    %rax,-0x8(%rbp)
   [34m0x0000555555555162[m <+25>:	xor    %eax,%eax
   [34m0x0000555555555164[m <+27>:	movl   $0x3020100,-0xd(%rbp)
   [34m0x000055555555516b[m <+34>:	movb   $0x4,-0x9(%rbp)
   [34m0x000055555555516f[m <+38>:	movw   $0x0,-0x6a(%rbp)
   [34m0x0000555555555175[m <+44>:	movw   $0x1,-0x68(%rbp)
   [34m0x000055555555517b[m <+50>:	movw   $0x2,-0x66(%rbp)
   [34m0x0000555555555181[m <+56>:	movw   $0x3,-0x64(%rbp)
   [34m0x0000555555555187[m <+62>:	movw   $0x4,-0x62(%rbp)
   [34m0x000055555555518d[m <+68>:	movl   $0x0,-0x60(%rbp)
   [34m0x0000555555555194[m <+75>:	movl   $0x1,-0x5c(%rbp)
   [34m0x000055555555519b[m <+82>:	movl   $0x2,-0x58(%rbp)
   [34m0x00005555555551a2[m <+89>:	movl   $0x3,-0x54(%rbp)
   [34m0x00005555555551a9[m <+96>:	movl   $0x4,-0x50(%rbp)
   [34m0x00005555555551b0[m <+103>:	movq   $0x0,-0x40(%rbp)
   [34m0x00005555555551b8[m <+111>:	movq   $0x1,-0x38(%rbp)
   [34m0x00005555555551c0[m <+119>:	movq   $0x2,-0x30(%rbp)
   [34m0x00005555555551c8[m <+127>:	movq   $0x3,-0x28(%rbp)
   [34m0x00005555555551d0[m <+135>:	movq   $0x4,-0x20(%rbp)
   [34m0x00005555555551d8[m <+143>:	mov    $0x0,%eax
   [34m0x00005555555551dd[m <+148>:	mov    -0x8(%rbp),%rdx
   [34m0x00005555555551e1[m <+152>:	sub    %fs:0x28,%rdx
   [34m0x00005555555551ea[m <+161>:	je     [34m0x5555555551f1[m <[33mmain[m+168>
   [34m0x00005555555551ec[m <+163>:	call   [34m0x555555555050[m <[33m__stack_chk_fail@plt[m>
   [34m0x00005555555551f1[m <+168>:	leave  
   [34m0x00005555555551f2[m <+169>:	ret    
End of assembler dump.
[?2004h(gdb) si
[?2004l[34m0x000055555555515e[m	3	[32mint[m [01mmain[m[31m([m[32mvoid[m[31m)[m [31m{[m
[?2004h[?2004l[?2004h(gdb) c
[?2004lContinuing.
[Inferior 1 (process 1162) exited normally]
[?2004h[?2004l[?2004h(gdb) disas
[?2004lNo frame selected.
[?2004h(gdb) q
[?2004l[?2004h]0;chaehoon@chaehoon: ~/Projects/labschaehoon@chaehoon:~/Projects/labs$ vi test2.c
[?2004l[?1049h[22;0;0t[>4;2m[?1h=[?2004h[?1004h[1;58r[?12h[?12l[22;2t[22;1t[27m[23m[29m[m[H[2J[?25l[58;1H"test2.c" 19L, 243B[2;1H▽[6n[2;1H  [3;1HPzz\[0%m[6n[3;1H           [1;1H[>c]10;?]11;?[1;1H[35m#include [m[31m<stdio.h>[m[2;1H[K[3;1H[32mstruct[m name {[3;14H[K[4;9H[32mchar[m first[[31m12[m];[5;9H[32mchar[m last[[31m12[m];
};

[32mlong[m main([32mvoid[m) [46m{[m[9;9H[32mlong[m i = [31m3[m; [32mlong[m* pi = &i;[10;9H[32mlong[m arr[[31m10[m]; [32mstruct[m name n;[12;9H*pi = [31m1[m;[13;9Harr[[31m0[m] = [31m0x30[m;[14;9Harr[i] = [31m0x31[m;[15;9Hn.first[[31m0[m] = [31m0x32[m;[16;9Hn.last[[31m0[m] = [31m0x33[m;[17;9H[33mreturn[m [31m0[m;
[46m}[m

[1m[34m~                                                                                                                                                                                                                 [21;1H~                                                                                                                                                                                                                 [22;1H~                                                                                                                                                                                                                 [23;1H~                                                                                                                                                                                                                 [24;1H~                                                                                                                                                                                                                 [25;1H~                                                                                                                                                                                                                 [26;1H~                                                                                                                                                                                                                 [27;1H~                                                                                                                                                                                                                 [28;1H~                                                                                                                                                                                                                 [29;1H~                                                                                                                                                                                                                 [30;1H~                                                                                                                                                                                                                 [31;1H~                                                                                                                                                                                                                 [32;1H~                                                                                                                                                                                                                 [33;1H~                                                                                                                                                                                                                 [34;1H~                                                                                                                                                                                                                 [35;1H~                                                                                                                                                                                                                 [36;1H~                                                                                                                                                                                                                 [37;1H~                                                                                                                                                                                                                 [38;1H~                                                                                                                                                                                                                 [39;1H~                                                                                                                                                                                                                 [40;1H~                                                                                                                                                                                                                 [41;1H~                                                                                                                                                                                                                 [42;1H~                                                                                                                                                                                                                 [43;1H~                                                                                                                                                                                                                 [44;1H~                                                                                                                                                                                                                 [45;1H~                                                                                                                                                                                                                 [46;1H~                                                                                                                                                                                                                 [47;1H~                                                                                                                                                                                                                 [48;1H~                                                                                                                                                                                                                 [49;1H~                                                                                                                                                                                                                 [50;1H~                                                                                                                                                                                                                 [51;1H~                                                                                                                                                                                                                 [52;1H~                                                                                                                                                                                                                 [53;1H~                                                                                                                                                                                                                 [54;1H~                                                                                                                                                                                                                 [55;1H~                                                                                                                                                                                                                 [56;1H~                                                                                                                                                                                                                 [57;1H~                                                                                                                                                                                                                 [m[58;193H18,1[10CAll[18;1H[?25h[?12$p[27m[23m[29m[m[H[2J[?25l[1;1H[1m[34m#include [m[1m[35m<stdio.h>[m

[1m[32mstruct[m name {[4;9H[1m[32mchar[m first[[1m[35m12[m];[5;9H[1m[32mchar[m last[[1m[35m12[m];
};

[1m[32mlong[m main([1m[32mvoid[m) [46m{[m[9;9H[1m[32mlong[m i = [1m[35m3[m; [1m[32mlong[m* pi = &i;[10;9H[1m[32mlong[m arr[[1m[35m10[m]; [1m[32mstruct[m name n;[12;9H*pi = [1m[35m1[m;[13;9Harr[[1m[35m0[m] = [1m[35m0x30[m;[14;9Harr[i] = [1m[35m0x31[m;[15;9Hn.first[[1m[35m0[m] = [1m[35m0x32[m;[16;9Hn.last[[1m[35m0[m] = [1m[35m0x33[m;[17;9H[1m[33mreturn[m [1m[35m0[m;
[46m}[m

[1m[34m~                                                                                                                                                                                                                 [21;1H~                                                                                                                                                                                                                 [22;1H~                                                                                                                                                                                                                 [23;1H~                                                                                                                                                                                                                 [24;1H~                                                                                                                                                                                                                 [25;1H~                                                                                                                                                                                                                 [26;1H~                                                                                                                                                                                                                 [27;1H~                                                                                                                                                                                                                 [28;1H~                                                                                                                                                                                                                 [29;1H~                                                                                                                                                                                                                 [30;1H~                                                                                                                                                                                                                 [31;1H~                                                                                                                                                                                                                 [32;1H~                                                                                                                                                                                                                 [33;1H~                                                                                                                                                                                                                 [34;1H~                                                                                                                                                                                                                 [35;1H~                                                                                                                                                                                                                 [36;1H~                                                                                                                                                                                                                 [37;1H~                                                                                                                                                                                                                 [38;1H~                                                                                                                                                                                                                 [39;1H~                                                                                                                                                                                                                 [40;1H~                                                                                                                                                                                                                 [41;1H~                                                                                                                                                                                                                 [42;1H~                                                                                                                                                                                                                 [43;1H~                                                                                                                                                                                                                 [44;1H~                                                                                                                                                                                                                 [45;1H~                                                                                                                                                                                                                 [46;1H~                                                                                                                                                                                                                 [47;1H~                                                                                                                                                                                                                 [48;1H~                                                                                                                                                                                                                 [49;1H~                                                                                                                                                                                                                 [50;1H~                                                                                                                                                                                                                 [51;1H~                                                                                                                                                                                                                 [52;1H~                                                                                                                                                                                                                 [53;1H~                                                                                                                                                                                                                 [54;1H~                                                                                                                                                                                                                 [55;1H~                                                                                                                                                                                                                 [56;1H~                                                                                                                                                                                                                 [57;1H~                                                                                                                                                                                                                 [m[58;193H18,1[10CAll"test2.c" 19L, 243B[18;1H[?25h[?25l[58;183H^[[18;1H[58;183H  [18;1H[58;183H^[[18;1H[58;183H  [18;1H[?25h[?25l[58;183H:[18;1H[58;1H[K[58;1H:[?25hwq[?25l[?2004l[>4;m"test2.c" 19L, 243B written[23;2t[23;1t
[?1004l[?2004l[?1l>[?25h[>4;m[?1049l[23;0;0t[?2004h]0;chaehoon@chaehoon: ~/Projects/labschaehoon@chaehoon:~/Projects/labs$ cd lab8
[?2004l[?2004h]0;chaehoon@chaehoon: ~/Projects/labs/lab8chaehoon@chaehoon:~/Projects/labs/lab8$ vi test2.c
[?2004l[?1049h[22;0;0t[>4;2m[?1h=[?2004h[?1004h[1;58r[?12h[?12l[22;2t[22;1t[27m[23m[29m[m[H[2J[?25l[58;1H"test2.c" [New][2;1H▽[6n[2;1H  [3;1HPzz\[0%m[6n[3;1H           [1;1H[>c]10;?]11;?[2;1H[1m[34m~                                                                                                                                                                                                                 [3;1H~                                                                                                                                                                                                                 [4;1H~                                                                                                                                                                                                                 [5;1H~                                                                                                                                                                                                                 [6;1H~                                                                                                                                                                                                                 [7;1H~                                                                                                                                                                                                                 [8;1H~                                                                                                                                                                                                                 [9;1H~                                                                                                                                                                                                                 [10;1H~                                                                                                                                                                                                                 [11;1H~                                                                                                                                                                                                                 [12;1H~                                                                                                                                                                                                                 [13;1H~                                                                                                                                                                                                                 [14;1H~                                                                                                                                                                                                                 [15;1H~                                                                                                                                                                                                                 [16;1H~                                                                                                                                                                                                                 [17;1H~                                                                                                                                                                                                                 [18;1H~                                                                                                                                                                                                                 [19;1H~                                                                                                                                                                                                                 [20;1H~                                                                                                                                                                                                                 [21;1H~                                                                                                                                                                                                                 [22;1H~                                                                                                                                                                                                                 [23;1H~                                                                                                                                                                                                                 [24;1H~                                                                                                                                                                                                                 [25;1H~                                                                                                                                                                                                                 [26;1H~                                                                                                                                                                                                                 [27;1H~                                                                                                                                                                                                                 [28;1H~                                                                                                                                                                                                                 [29;1H~                                                                                                                                                                                                                 [30;1H~                                                                                                                                                                                                                 [31;1H~                                                                                                                                                                                                                 [32;1H~                                                                                                                                                                                                                 [33;1H~                                                                                                                                                                                                                 [34;1H~                                                                                                                                                                                                                 [35;1H~                                                                                                                                                                                                                 [36;1H~                                                                                                                                                                                                                 [37;1H~                                                                                                                                                                                                                 [38;1H~                                                                                                                                                                                                                 [39;1H~                                                                                                                                                                                                                 [40;1H~                                                                                                                                                                                                                 [41;1H~                                                                                                                                                                                                                 [42;1H~                                                                                                                                                                                                                 [43;1H~                                                                                                                                                                                                                 [44;1H~                                                                                                                                                                                                                 [45;1H~                                                                                                                                                                                                                 [46;1H~                                                                                                                                                                                                                 [47;1H~                                                                                                                                                                                                                 [48;1H~                                                                                                                                                                                                                 [49;1H~                                                                                                                                                                                                                 [50;1H~                                                                                                                                                                                                                 [51;1H~                                                                                                                                                                                                                 [52;1H~                                                                                                                                                                                                                 [53;1H~                                                                                                                                                                                                                 [54;1H~                                                                                                                                                                                                                 [55;1H~                                                                                                                                                                                                                 [56;1H~                                                                                                                                                                                                                 [57;1H~                                                                                                                                                                                                                 [m[58;193H0,0-1[9CAll[1;1H[?25h[?12$p[?25l[58;183H0[1;1H[58;184H0[1;1H[58;185H0[1;1H[58;186H/[1;1H[58;187H0[1;1H[58;188H0[1;1H[58;189H0[1;1H[58;190H0[1;1H[58;191H/[1;1H[58;192H0[1;1H[58;183H          [1;1H[27m[23m[29m[m[H[2J[2;1H[1m[34m~                                                                                                                                                                                                                 [3;1H~                                                                                                                                                                                                                 [4;1H~                                                                                                                                                                                                                 [5;1H~                                                                                                                                                                                                                 [6;1H~                                                                                                                                                                                                                 [7;1H~                                                                                                                                                                                                                 [8;1H~                                                                                                                                                                                                                 [9;1H~                                                                                                                                                                                                                 [10;1H~                                                                                                                                                                                                                 [11;1H~                                                                                                                                                                                                                 [12;1H~                                                                                                                                                                                                                 [13;1H~                                                                                                                                                                                                                 [14;1H~                                                                                                                                                                                                                 [15;1H~                                                                                                                                                                                                                 [16;1H~                                                                                                                                                                                                                 [17;1H~                                                                                                                                                                                                                 [18;1H~                                                                                                                                                                                                                 [19;1H~                                                                                                                                                                                                                 [20;1H~                                                                                                                                                                                                                 [21;1H~                                                                                                                                                                                                                 [22;1H~                                                                                                                                                                                                                 [23;1H~                                                                                                                                                                                                                 [24;1H~                                                                                                                                                                                                                 [25;1H~                                                                                                                                                                                                                 [26;1H~                                                                                                                                                                                                                 [27;1H~                                                                                                                                                                                                                 [28;1H~                                                                                                                                                                                                                 [29;1H~                                                                                                                                                                                                                 [30;1H~                                                                                                                                                                                                                 [31;1H~                                                                                                                                                                                                                 [32;1H~                                                                                                                                                                                                                 [33;1H~                                                                                                                                                                                                                 [34;1H~                                                                                                                                                                                                                 [35;1H~                                                                                                                                                                                                                 [36;1H~                                                                                                                                                                                                                 [37;1H~                                                                                                                                                                                                                 [38;1H~                                                                                                                                                                                                                 [39;1H~                                                                                                                                                                                                                 [40;1H~                                                                                                                                                                                                                 [41;1H~                                                                                                                                                                                                                 [42;1H~                                                                                                                                                                                                                 [43;1H~                                                                                                                                                                                                                 [44;1H~                                                                                                                                                                                                                 [45;1H~                                                                                                                                                                                                                 [46;1H~                                                                                                                                                                                                                 [47;1H~                                                                                                                                                                                                                 [48;1H~                                                                                                                                                                                                                 [49;1H~                                                                                                                                                                                                                 [50;1H~                                                                                                                                                                                                                 [51;1H~                                                                                                                                                                                                                 [52;1H~                                                                                                                                                                                                                 [53;1H~                                                                                                                                                                                                                 [54;1H~                                                                                                                                                                                                                 [55;1H~                                                                                                                                                                                                                 [56;1H~                                                                                                                                                                                                                 [57;1H~                                                                                                                                                                                                                 [m[58;193H0,0-1[9CAll"test2.c" [New][1;1H[?25h[?25l[58;183Hi[1;1H[58;183H [1;1H[58;1H[1m-- INSERT --[m[58;13H[K[58;193H0,1[11CAll[1;1H[?25h[?25l#[58;193H1,2[1;2H[?25h[?25li[58;195H3[1;3H[?25h[?25ln[58;195H4[1;4H[?25h[?25lc[58;195H5[1;5H[?25h[?25ll[58;195H6[1;6H[?25h[?25lu[58;195H7[1;7H[?25h[?25ld[58;195H8[1;8H[?25h[?25le[58;195H9[1;9H[?25h[?25l[58;195H10[1;10H[?25h[?25l>[58;196H1[1;11H[?25h[?25ls[58;196H2[1;12H[?25h[?25lt[58;196H3[1;13H[?25h[?25ld[58;196H4[1;14H[?25h[?25li[58;196H5[1;15H[?25h[?25lo[58;196H6[1;16H[?25h[?25l.[58;196H7[1;17H[?25h[?25lh[58;196H8[1;18H[?25h[?25l>[58;196H9[1;19H[?25h[?25l[58;196H8[1;18H[?25h[?25l[58;196H7[1;17H[?25h[?25l[58;196H6[1;16H[?25h[?25l[58;196H5[1;15H[?25h[?25l[58;196H4[1;14H[?25h[?25l[58;196H3[1;13H[?25h[?25l[58;196H2[1;12H[?25h[?25l[58;196H1[1;11H[?25h[?25l[58;196H2[1;12H[?25h[?25l[58;196H1[1;11H[?25h[?25lstdio.h>[1;18H[K[58;196H0[1;10H[?25h[?25l[1m[34m#include [m[1m[35m<stdio.h>[m[58;196H1[1;11H[?25h[?25l[58;196H2[1;12H[?25h[?25l[58;196H3[1;13H[?25h[?25l[58;196H4[1;14H[?25h[?25l[58;196H5[1;15H[?25h[?25l[58;196H6[1;16H[?25h[?25l[58;196H7[1;17H[?25h[?25l[58;196H8[1;18H[?25h[?25l[58;196H9[1;19H[?25h[?25l[2;1H[K[58;193H2,1 [2;1H[?25h[?25l#[58;195H2[2;2H[?25h[?25li[58;195H3[2;3H[?25h[?25ln[58;195H4[2;4H[?25h[?25lc[58;195H5[2;5H[?25h[?25ll[58;195H6[2;6H[?25h[?25lu[58;195H7[2;7H[?25h[?25ld[58;195H8[2;8H[?25h[?25le[58;195H9[2;9H[?25h[?25l[58;195H10[2;10H[?25h[?25l[1m[34m#include <[m[58;196H1[2;11H[?25h[?25ls[58;196H2[2;12H[?25h[?25lt[58;196H3[2;13H[?25h[?25ld[58;196H4[2;14H[?25h[?25ll[58;196H5[2;15H[?25h[?25li[58;196H6[2;16H[?25h[?25lb[58;196H7[2;17H[?25h[?25l.[58;196H8[2;18H[?25h[?25lh[58;196H9[2;19H[?25h[?25l?[58;195H20[2;20H[?25h[?25l[2;19H[K[58;195H19[2;19H[?25h[?25l[2;10H[1m[35m<stdlib.h>[m[58;195H20[2;20H[?25h[?25l[3;1H[K[58;193H3,1 [3;1H[?25h[?25l[4;1H[K[58;193H4[4;1H[?25h[?25li[58;195H2[4;2H[?25h[?25ln[58;195H3[4;3H[?25h[?25l[1m[32mint[m[58;195H4[4;4H[?25h[?25l[58;195H5[4;5H[?25h[?25lm[58;195H6[4;6H[?25h[?25la[58;195H7[4;7H[?25h[?25li[58;195H8[4;8H[?25h[?25ln[58;195H9[4;9H[?25h[?25l([58;195H10[4;10H[?25h[?25lv[58;196H1[4;11H[?25h[?25lo[58;196H2[4;12H[?25h[?25li[58;196H3[4;13H[?25h[?25l[1m[32mvoid[m[58;196H4[4;14H[?25h[?25l)[46m([4C)[m[58;196H5[4;15H[?25h[?25l([4C)[58;196H6[4;16H[?25h[?25l{[58;196H7[4;17H[?25h[?25l[4;16H[K[58;196H6[4;16H[?25h[?25l[4;9H[46m([4C)[m[58;196H5[4;15H[?25h[?25l[4;14H[K[4;9H([58;196H4[4;14H[?25h[?25lvoi[4;13H[K[58;196H3[4;13H[?25h[?25l[4;12H[K[58;196H2[4;12H[?25h[?25l[4;11H[K[58;196H1[4;11H[?25h[?25l[4;10H[K[58;196H0[4;10H[?25h[?25li[58;196H1[4;11H[?25h[?25ln[58;196H2[4;12H[?25h[?25l[1m[32mint[m[58;196H3[4;13H[?25h[?25l[58;196H4[4;14H[?25h[?25la[58;196H5[4;15H[?25h[?25lr[58;196H6[4;16H[?25h[?25lg[58;196H7[4;17H[?25h[?25lc[58;196H8[4;18H[?25h[?25l,[58;196H9[4;19H[?25h[?25l[58;195H20[4;20H[?25h[?25lc[58;196H1[4;21H[?25h[?25lh[58;196H2[4;22H[?25h[?25la[58;196H3[4;23H[?25h[?25l[1m[32mchar[m[58;196H4[4;24H[?25h[?25l*[58;196H5[4;25H[?25h[?25l*[58;196H6[4;26H[?25h[?25l[58;196H7[4;27H[?25h[?25la[58;196H8[4;28H[?25h[?25lr[58;196H9[4;29H[?25h[?25lg[58;195H30[4;30H[?25h[?25lv[58;196H1[4;31H[?25h[?25l)[4;9H[46m([21C)[m[58;196H2[4;32H[?25h[?25l[4;9H([21C)[58;196H3[4;33H[?25h[?25l{[58;196H4[4;34H[?25h[?25l
        [5;9H[K[58;193H5,2-9[5;9H[?25h[?25li[58;195H3-10[5;10H[?25h[?25ln[58;195H4-11[5;11H[?25h[?25l[1m[32mint[m[58;195H5-12[5;12H[?25h[?25l[58;195H6-13[5;13H[?25h[?25li[58;195H7-14[5;14H[?25h[?25l,[58;195H8-15[5;15H[?25h[?25l[58;195H9-16[5;16H[?25h[?25lr[58;195H10-17[5;17H[?25h[?25lo[58;196H1-18[5;18H[?25h[?25lw[58;196H2-19[5;19H[?25h[?25l,[58;196H3-20[5;20H[?25h[?25l[58;196H4-21[5;21H[?25h[?25lc[58;196H5-22[5;22H[?25h[?25lo[58;196H6-23[5;23H[?25h[?25l;[58;196H7-24[5;24H[?25h[?25ll[58;196H8-25[5;25H[?25h[?25l,[58;196H9-26[5;26H[?25h[?25l[5;25H[K[58;196H8-25[5;25H[?25h[?25l[5;24H[K[58;196H7-24[5;24H[?25h[?25l[5;23H[K[58;196H6-23[5;23H[?25h[?25ll[58;196H7-24[5;24H[?25h[?25l,[58;196H8-25[5;25H[?25h[?25l[58;196H9-26[5;26H[?25h[?25la[58;195H20-27[5;27H[?25h[?25lr[58;196H1-28[5;28H[?25h[?25lr[58;196H2-29[5;29H[?25h[?25l[[58;196H3-30[5;30H[?25h[?25l[1m[35m4[m[58;196H4-31[5;31H[?25h[?25l][46m[[1C][m[58;196H5-32[5;32H[?25h[?25l[[[1C][58;196H6-33[5;33H[?25h[?25l[1m[35m5[m[58;196H7-34[5;34H[?25h[?25l[1m[35m5[m[58;196H8-35[5;35H[?25h[?25l][46m[[2C][m[58;196H9-36[5;36H[?25h[?25l[5;35H[K[5;32H[[58;196H8-35[5;35H[?25h[?25l[5;34H[K[58;196H7-34[5;34H[?25h[?25l][46m[[1C][m[58;196H8-35[5;35H[?25h[?25l;[[1C][58;196H9-36[5;36H[?25h[?25l
        [6;9H[K[58;193H6,2-9  [6;9H[?25h[?25lㅑ[58;195H5-11[6;11H[?25h[?25lㅜ[58;195H8-13[6;13H[?25h[?25l[6;11H[K[58;195H5-11[6;11H[?25h[?25l[6;9H[K[58;195H2-9 [6;9H[?25h[?25li[58;195H3-10[6;10H[?25h[?25ln[58;195H4-11[6;11H[?25h[?25l[1m[32mint[m[58;195H5-12[6;12H[?25h[?25l*[58;195H6-13[6;13H[?25h[?25l[58;195H7-14[6;14H[?25h[?25lp[58;195H8-15[6;15H[?25h[?25l[58;195H9-16[6;16H[?25h[?25l=[58;195H10-17[6;17H[?25h[?25l[58;196H1-18[6;18H[?25h[?25l&[58;196H2-19[6;19H[?25h[?25la[58;196H3-20[6;20H[?25h[?25lr[58;196H4-21[6;21H[?25h[?25lr[58;196H5-22[6;22H[?25h[?25l[[58;196H6-23[6;23H[?25h[?25l[1m[35m0[m[58;196H7-24[6;24H[?25h[?25l][46m[[1C][m[58;196H8-25[6;25H[?25h[?25l[[[1C][58;196H9-26[6;26H[?25h[?25l[1m[35m0[m[58;195H20-27[6;27H[?25h[?25l][46m[[1C][m[58;196H1-28[6;28H[?25h[?25l;[[1C][58;196H2-29[6;29H[?25h[?25l
        [7;9H[K[58;193H7,2-9  [7;9H[?25h[?25lr[58;195H3-10[7;10H[?25h[?25lo[58;195H4-11[7;11H[?25h[?25lw[58;195H5-12[7;12H[?25h[?25l[58;195H6-13[7;13H[?25h[?25l=[58;195H7-14[7;14H[?25h[?25l[58;195H8-15[7;15H[?25h[?25l[1m[35m2[m[58;195H9-16[7;16H[?25h[?25l;[58;195H10-17[7;17H[?25h[?25l
        [8;9H[K[58;193H8,2-9  [8;9H[?25h[?25lc[58;195H3-10[8;10H[?25h[?25lo[58;195H4-11[8;11H[?25h[?25ll[58;195H5-12[8;12H[?25h[?25l[58;195H6-13[8;13H[?25h[?25l[1m[35m3[m[58;195H7-14[8;14H[?25h[?25l;[58;195H8-15[8;15H[?25h[?25l[58;195H7-14[8;14H[?25h[?25l[58;195H6-13[8;13H[?25h[?25l=[1m[35m3[m;[58;195H7-14[8;14H[?25h[?25l [1m[35m3[m;[58;195H8-15[8;15H[?25h[?25l[58;195H9-16[8;16H[?25h[?25l[58;195H10-17[8;17H[?25h[?25l
        [9;9H[K[58;193H9,2-9  [9;9H[?25h[?25l
        [10;9H[K[58;193H10,2-9[10;9H[?25h[?25lf[58;196H3-10[10;10H[?25h[?25lo[58;196H4-11[10;11H[?25h[?25l[1m[33mfor[m[58;196H5-12[10;12H[?25h[?25l([58;196H6-13[10;13H[?25h[?25li[58;196H7-14[10;14H[?25h[?25ln[58;196H8-15[10;15H[?25h[?25l[1m[32mint[m[58;196H9-16[10;16H[?25h[?25l[58;196H10-17[10;17H[?25h[?25li[58;197H1-18[10;18H[?25h[?25l[58;197H2-19[10;19H[?25h[?25l=[58;197H3-20[10;20H[?25h[?25l[58;197H4-21[10;21H[?25h[?25l[1m[35m0[m[58;197H5-22[10;22H[?25h[?25l;[58;197H6-23[10;23H[?25h[?25l[58;197H7-24[10;24H[?25h[?25li[58;197H8-25[10;25H[?25h[?25l[58;197H9-26[10;26H[?25h[?25l<[58;196H20-27[10;27H[?25h[?25l[58;197H1-28[10;28H[?25h[?25l[1m[35m4[m[58;197H2-29[10;29H[?25h[?25l[58;197H3-30[10;30H[?25h[?25l[58;197H4-31[10;31H[?25h[?25l*[58;197H5-32[10;32H[?25h[?25l[10;31H[K[58;197H4-31[10;31H[?25h[?25l[58;197H3-30[10;30H[?25h[?25l*[58;197H4-31[10;31H[?25h[?25l[58;197H5-32[10;32H[?25h[?25l[1m[35m5[m[58;197H6-33[10;33H[?25h[?25l;[58;197H7-34[10;34H[?25h[?25l[58;197H8-35[10;35H[?25h[?25li[58;197H9-36[10;36H[?25h[?25l+[58;196H30-37[10;37H[?25h[?25l+[58;197H1-38[10;38H[?25h[?25l)[10;12H[46m([25C)[m[58;197H2-39[10;39H[?25h[?25l[10;12H([25C)[58;197H3-40[10;40H[?25h[?25l{[58;197H4-41[10;41H[?25h[?25l
                [11;17H[K[58;194H1,3-17 [11;17H[?25h[?25lp[58;196H4-18[11;18H[?25h[?25l[[58;196H5-19[11;19H[?25h[?25li[58;196H6-20[11;20H[?25h[?25l][46m[[mi[46m][m[58;196H7-21[11;21H[?25h[?25l[[i][58;196H8-22[11;22H[?25h[?25l[11;21H[K[11;18H[46m[[mi[46m][m[58;196H7-21[11;21H[?25h[?25l[i][58;196H8-22[11;22H[?25h[?25l=[58;196H9-23[11;23H[?25h[?25l[58;196H10-24[11;24H[?25h[?25li[58;197H1-25[11;25H[?25h[?25l;[58;197H2-26[11;26H[?25h[?25l
                [12;17H[K[58;194H2,3-17 [12;17H[?25h[?25l[12;9H}[10;40H[46m{[12;9H}[m[58;199H0[12;10H[?25h[?25l
        [13;9H[K[10;40H{[12;9H}[58;194H3,2-9 [13;9H[?25h[?25l
        [14;9H[K[58;194H4[14;9H[?25h[?25lp[58;196H3-10[14;10H[?25h[?25lr[58;196H4-11[14;11H[?25h[?25li[58;196H5-12[14;12H[?25h[?25ln[58;196H6-13[14;13H[?25h[?25lt[58;196H7-14[14;14H[?25h[?25lf[58;196H8-15[14;15H[?25h[?25l([58;196H9-16[14;16H[?25h[?25l[1m[35m"[m[58;196H10-17[14;17H[?25h[?25l[1m[35ma[m[58;197H1-18[14;18H[?25h[?25l[1m[35mr[m[58;197H2-19[14;19H[?25h[?25l[1m[35mr[m[58;197H3-20[14;20H[?25h[?25l[1m[35m[[m[58;197H4-21[14;21H[?25h[?25l[1m[35m%[m[58;197H5-22[14;22H[?25h[?25l[1m[31m%d[m[58;197H6-23[14;23H[?25h[?25l[1m[35m][m[1m[35m[46m[[m[1m[31m%d[m[1m[35m[46m][m[58;197H7-24[14;24H[?25h[?25l[1m[35m[[[m[1m[31m%d[m[1m[35m][[m[58;197H8-25[14;25H[?25h[?25l[1m[35m&[m[58;197H9-26[14;26H[?25h[?25l[14;25H[K[58;197H8-25[14;25H[?25h[?25l[1m[35m%[m[58;197H9-26[14;26H[?25h[?25l[1m[31m%d[m[58;196H20-27[14;27H[?25h[?25l[1m[35m][m[1m[35m[46m[[m[1m[31m%d[m[1m[35m[46m][m[58;197H1-28[14;28H[?25h[?25l[1m[31m\[m[1m[35m[[m[1m[31m%d[m[1m[35m][m[1m[31m\[m[58;197H2-29[14;29H[?25h[?25l[1m[31mn[m[58;197H3-30[14;30H[?25h[?25l[1m[35m"[m[58;197H4-31[14;31H[?25h[?25l<[58;197H5-32[14;32H[?25h[?25l[14;31H[K[58;197H4-31[14;31H[?25h[?25l,[58;197H5-32[14;32H[?25h[?25l[58;197H6-33[14;33H[?25h[?25l)[14;15H[46m([17C)[m[58;197H7-34[14;34H[?25h[?25l;[14;15H([17C)[58;197H8-35[14;35H[?25h[?25l
        [15;9H[K[58;194H5,2-9  [15;9H[?25h[?25lp[58;196H3-10[15;10H[?25h[?25lr[58;196H4-11[15;11H[?25h[?25li[58;196H5-12[15;12H[?25h[?25ln[58;196H6-13[15;13H[?25h[?25lt[58;196H7-14[15;14H[?25h[?25lf[58;196H8-15[15;15H[?25h[?25l([58;196H9-16[15;16H[?25h[?25l[1m[35m"[m[58;196H10-17[15;17H[?25h[?25l[1m[35ma[m[58;197H1-18[15;18H[?25h[?25l[1m[35mr[m[58;197H2-19[15;19H[?25h[?25l[1m[35mr[m[58;197H3-20[15;20H[?25h[?25l[1m[35m[[m[58;197H4-21[15;21H[?25h[?25l[1m[35m][m[1m[35m[46m[][m[58;197H5-22[15;22H[?25h[?25l[1m[35m[[][[m[58;197H6-23[15;23H[?25h[?25l[1m[35m][m[1m[35m[46m[][m[58;197H7-24[15;24H[?25h[?25l[1m[31m\[m[1m[35m[][m[1m[31m\[m[58;197H8-25[15;25H[?25h[?25l[1m[31mn[m[58;197H9-26[15;26H[?25h[?25l[1m[35m"[m[58;196H20-27[15;27H[?25h[?25l,[58;197H1-28[15;28H[?25h[?25l[58;197H2-29[15;29H[?25h[?25l)[15;15H[46m([13C)[m[58;197H3-30[15;30H[?25h[?25l;[15;15H([13C)[58;197H4-31[15;31H[?25h[?25l
        [16;9H[K[58;194H6,2-9  [16;9H[?25h[?25l
        [17;9H[K[58;194H7[17;9H[?25h[?25lr[58;196H3-10[17;10H[?25h[?25le[58;196H4-11[17;11H[?25h[?25lt[58;196H5-12[17;12H[?25h[?25lu[58;196H6-13[17;13H[?25h[?25lr[58;196H7-14[17;14H[?25h[?25l[1m[33mreturn[m[58;196H8-15[17;15H[?25h[?25l[58;196H9-16[17;16H[?25h[?25l[1m[35m0[m[58;196H10-17[17;17H[?25h[?25l;[58;197H1-18[17;18H[?25h[?25l
        [18;9H[K[58;194H8,2-9  [18;9H[?25h[?25l}[4;33H[46m{[18;1H}[m[58;197H  [18;2H[?25h[?25l[4;33H{[18;1H}[58;194H7,1[17;1H[?25h[?25l[58;194H6[16;1H[?25h[?25l[58;194H5[15;1H[?25h[?25l[58;196H2-9[15;9H[?25h[?25l[58;196H3-10[15;10H[?25h[?25l[58;196H4-11[15;11H[?25h[?25l[58;196H5-12[15;12H[?25h[?25l[58;196H6-13[15;13H[?25h[?25l[58;196H7-14[15;14H[?25h[?25lf[46m([13C)[m[58;196H8-15[15;15H[?25h[?25l[58;196H9-16[15;16H[?25h[?25l([13C)[58;196H10-17[15;17H[?25h[?25l[58;197H1-18[15;18H[?25h[?25l[58;197H2-19[15;19H[?25h[?25l[1C[1m[35m[46m[][m[1m[35m[][m[1m[31m\n[m[1m[35m"[m,[58;197H3-20[15;20H[?25h[?25l[58;197H4-21[15;21H[?25h[?25l[1m[35m[][m[1m[35m[46m[][m[1m[31m\n[m[1m[35m"[m,[58;197H5-22[15;22H[?25h[?25l[58;197H6-23[15;23H[?25h[?25l[58;197H7-24[15;24H[?25h[?25l[1m[35m[][m[1m[31m\n[m[1m[35m"[m,[58;197H8-25[15;25H[?25h[?25l[14;24H[1m[35m[46m[[m[1m[31m%d[m[1m[35m[46m][m[1m[31m\n[m[1m[35m"[m,[58;194H4[14;25H[?25h[?25l[1m[35m[[m[1m[31m%d[m[1m[35m][m[1m[31m\n[m[1m[35m"[m,[58;197H9-26[14;26H[?25h[?25l[1m[35m[46m[[m[1m[31m%d[m[1m[35m[46m][m[1m[31m\n[m[1m[35m"[m,[58;196H20-27[14;27H[?25h[?25l[58;197H1-28[14;28H[?25h[?25l[1m[35m:[m[1m[31m\n[m[1m[35m"[m, );[14;24H[1m[35m[[m[1m[31m%d[m[1m[35m]:[m[1m[31m\n[m[1m[35m"[m,[58;197H2-29[14;29H[?25h[?25l[1m[35m [m[1m[31m\n[m[1m[35m"[m, );[58;197H3-30[14;30H[?25h[?25l[1m[35m%[m[1m[31m\n[m[1m[35m"[m, );[58;197H4-31[14;31H[?25h[?25l[1m[31m%d\n[m[1m[35m"[m, );[58;197H5-32[14;32H[?25h[?25l[58;197H6-33[14;33H[?25h[?25l[58;197H7-34[14;34H[?25h[?25l[58;197H8-35[14;35H[?25h[?25l[58;197H9-36[14;36H[?25h[?25l[14;15H[46m([21C)[m[58;196H30-37[14;37H[?25h[?25l[46mr[m);r[46m)[m[58;197H1-38[14;38H[?25h[?25l[46mo[m);o[46m)[m[58;197H2-39[14;39H[?25h[?25l[46mw[m);w[46m)[m[58;197H3-40[14;40H[?25h[?25l[46m,[m);,[46m)[m[58;197H4-41[14;41H[?25h[?25l[46m [m); [46m)[m[58;197H5-42[14;42H[?25h[?25l[46mc[m);c[46m)[m[58;197H6-43[14;43H[?25h[?25l[46mo[m);o[46m)[m[58;197H7-44[14;44H[?25h[?25l[46ml[m);l[46m)[m[58;197H8-45[14;45H[?25h[?25l[46m,[m);,[46m)[m[58;197H9-46[14;46H[?25h[?25l[46m [m); [46m)[m[58;196H40-47[14;47H[?25h[?25l[46ma[m);a[46m)[m[58;197H1-48[14;48H[?25h[?25l[46mr[m);r[46m)[m[58;197H2-49[14;49H[?25h[?25l[46mr[m);r[46m)[m[58;197H3-50[14;50H[?25h[?25l[46m[[m[1m[37m[41m);[15;30H;[17;17H;[m[14;50H[[1m[37m[46m)[m[1m[37m[41m;[m[58;197H4-51[14;51H[?25h[?25l[46mr[m[1m[37m[41m);[mr[1m[37m[46m)[m[1m[37m[41m;[m[58;197H5-52[14;52H[?25h[?25l[46mo[m[1m[37m[41m);[mo[1m[37m[46m)[m[1m[37m[41m;[m[58;197H6-53[14;53H[?25h[?25l[46mw[m[1m[37m[41m);[mw[1m[37m[46m)[m[1m[37m[41m;[m[58;197H7-54[14;54H[?25h[?25l[46m][m);[15;30H;[17;17H;[14;54H][46m)[m[58;197H8-55[14;55H[?25h[?25l[46mc[m);c[46m)[m[58;197H9-56[14;56H[?25h[?25l[46mo[m);o[46m)[m[58;196H50-57[14;57H[?25h[?25l[46m;[m);;[46m)[m[58;197H1-58[14;58H[?25h[?25l)[46m;[m[14;59H[K[14;57H[46m)[m;[58;197H0-57[14;57H[?25h[?25l)[46m;[m[14;58H[K[14;56H[46m)[m;[58;196H49-56[14;56H[?25h[?25l)[46m;[m[14;57H[K[14;55H[46m)[m;[58;197H8-55[14;55H[?25h[?25l[46m[[m[1m[37m[41m);[15;30H;[17;17H;[m[14;55H[[1m[37m[46m)[m[1m[37m[41m;[m[58;197H9-56[14;56H[?25h[?25l[46mc[m[1m[37m[41m);[mc[1m[37m[46m)[m[1m[37m[41m;[m[58;196H50-57[14;57H[?25h[?25l[46mo[m[1m[37m[41m);[mo[1m[37m[46m)[m[1m[37m[41m;[m[58;197H1-58[14;58H[?25h[?25l[46ml[m[1m[37m[41m);[ml[1m[37m[46m)[m[1m[37m[41m;[m[58;197H2-59[14;59H[?25h[?25l[46m][m);[15;30H;[17;17H;[14;59H][46m)[m[58;197H3-60[14;60H[?25h[?25l[58;197H4-61[14;61H[?25h[?25l[14;15H([44C)[58;197H5-62[14;62H[?25h[?25l[58;194H5,24-31[15;31H[?25h[?25l[15;15H[46m([13C)[m[58;197H3-30[15;30H[?25h[?25l[58;197H2-29[15;29H[?25h[?25l[15;15H([13C)[58;197H1-28[15;28H[?25h[?25l[58;197H0-27[15;27H[?25h[?25l[58;196H19-26[15;26H[?25h[?25l[58;197H8-25[15;25H[?25h[?25l[1m[35m[46m[][m[1m[31m\n[m[1m[35m"[m,[58;197H7-24[15;24H[?25h[?25l[1m[35m:[m[1m[31m\n[m[1m[35m"[m, );[15;22H[1m[35m[]:[m[1m[31m\n[m[1m[35m"[m,[58;197H8-25[15;25H[?25h[?25l[1m[35m [m[1m[31m\n[m[1m[35m"[m, );[58;197H9-26[15;26H[?25h[?25l[1m[35m%[m[1m[31m\n[m[1m[35m"[m, );[58;196H20-27[15;27H[?25h[?25l[1m[31m%d\n[m[1m[35m"[m, );[58;197H1-28[15;28H[?25h[?25l[58;197H2-29[15;29H[?25h[?25l[58;197H3-30[15;30H[?25h[?25l[58;197H4-31[15;31H[?25h[?25l[58;197H5-32[15;32H[?25h[?25l[15;15H[46m([17C)[m[58;197H6-33[15;33H[?25h[?25l[15;15H([17C)[58;197H5-32[15;32H[?25h[?25l[58;197H4-31[15;31H[?25h[?25l[58;197H3-30[15;30H[?25h[?25l[58;197H2-29[15;29H[?25h[?25l[58;197H1-28[15;28H[?25h[?25l[58;197H0-27[15;27H[?25h[?25l[58;196H19-26[15;26H[?25h[?25l[58;197H8-25[15;25H[?25h[?25l[1m[35m[46m[][m[1m[35m: [m[1m[31m%d\n[m[1m[35m"[m,[58;197H7-24[15;24H[?25h[?25l[58;197H6-23[15;23H[?25h[?25l[58;197H5-22[15;22H[?25h[?25l[1m[35m[46m[][m[1m[35m[]: [m[1m[31m%d\n[m[1m[35m"[m,[58;197H4-21[15;21H[?25h[?25l[58;197H3-20[15;20H[?25h[?25l[58;197H4-21[15;21H[?25h[?25l[1m[35m[][m[1m[35m[46m[][m[1m[35m: [m[1m[31m%d\n[m[1m[35m"[m,[58;197H5-22[15;22H[?25h[?25l[1m[35m[[m[1m[35m[46m]:[m[1m[35m [m[1m[31m%d\n[m[1m[35m"[m, );[15;34H[K[15;21H[1m[35m[46m[][m[1m[35m: [m[1m[31m%d\n[m[1m[35m"[m,[58;197H4-21[15;21H[?25h[?25l[1m[35m[46m]:[m[1m[35m [m[1m[31m%d\n[m[1m[35m"[m, );[15;33H[K[15;20H[1m[35m[46m[][m[1m[35m: [m[1m[31m%d\n[m[1m[35m"[m,[58;197H3-20[15;20H[?25h[?25l[1m[35m[[m[1m[35m[46m]:[m[1m[35m [m[1m[31m%d\n[m[1m[35m"[m, );[15;32H[K[15;19H[1m[35m[46m[][m[1m[35m: [m[1m[31m%d\n[m[1m[35m"[m,[58;197H2-19[15;19H[?25h[?25l[1m[35m[[m[1m[35m[46m]:[m[1m[35m [m[1m[31m%d\n[m[1m[35m"[m, );[15;31H[K[15;18H[1m[35m[46m[][m[1m[35m: [m[1m[31m%d\n[m[1m[35m"[m,[58;197H1-18[15;18H[?25h[?25l[1m[35m[[m[1m[35m[46m]:[m[1m[35m [m[1m[31m%d\n[m[1m[35m"[m, );[15;30H[K[15;17H[1m[35m[46m[][m[1m[35m: [m[1m[31m%d\n[m[1m[35m"[m,[58;197H0-17[15;17H[?25h[?25l[1m[35m[46mp[[m[1m[35m]: [m[1m[31m%d\n[m[1m[35m"[m, );[15;17H[1m[35mp[m[1m[35m[46m[][m[1m[35m: [m[1m[31m%d\n[m[1m[35m"[m,[58;197H1-18[15;18H[?25h[?25l[58;197H2-19[15;19H[?25h[?25l[1m[35m[46m%[m[1m[35m]: [m[1m[31m%d\n[m[1m[35m"[m, );[15;19H[1m[35m%[m[1m[35m[46m][m[1m[35m: [m[1m[31m%d\n[m[1m[35m"[m,[58;197H3-20[15;20H[?25h[?25l[1m[31m%[m[1m[31m[46md[m[1m[35m]: [m[1m[31m%d\n[m[1m[35m"[m, );[15;20H[1m[31md[m[1m[35m[46m][m[1m[35m: [m[1m[31m%d\n[m[1m[35m"[m,[58;197H4-21[15;21H[?25h[?25l[58;197H5-22[15;22H[?25h[?25l[1m[35m[[m[1m[31m%d[m[1m[35m]: [m[1m[31m%d\n[m[1m[35m"[m,[58;197H6-23[15;23H[?25h[?25l[58;197H7-24[15;24H[?25h[?25l[58;197H8-25[15;25H[?25h[?25l[58;197H9-26[15;26H[?25h[?25l[58;196H20-27[15;27H[?25h[?25l[58;197H1-28[15;28H[?25h[?25l[58;197H2-29[15;29H[?25h[?25l[58;197H3-30[15;30H[?25h[?25l[15;15H[46m([15C)[m[58;197H4-31[15;31H[?25h[?25l[58;197H5-32[15;32H[?25h[?25l[15;15H([15C)[58;197H6-33[15;33H[?25h[?25l[15;15H[46m([15C)[m[58;197H5-32[15;32H[?25h[?25l[58;197H4-31[15;31H[?25h[?25l[46mr[m);r[46m)[m[58;197H5-32[15;32H[?25h[?25l[46mo[m);o[46m)[m[58;197H6-33[15;33H[?25h[?25l[46mw[m);w[46m)[m[58;197H7-34[15;34H[?25h[?25l[46m [m); [46m)[m[58;197H8-35[15;35H[?25h[?25l[46m*[m);*[46m)[m[58;197H9-36[15;36H[?25h[?25l[46m [m); [46m)[m[58;196H30-37[15;37H[?25h[?25l[1m[35m[46m4[m);[1m[35m4[m[46m)[m[58;197H1-38[15;38H[?25h[?25l[46m [m); [46m)[m[58;197H2-39[15;39H[?25h[?25l[46m+[m);+[46m)[m[58;197H3-40[15;40H[?25h[?25l[46m [m); [46m)[m[58;197H4-41[15;41H[?25h[?25l[46mc[m);c[46m)[m[58;197H5-42[15;42H[?25h[?25l[46mo[m);o[46m)[m[58;197H6-43[15;43H[?25h[?25l[46ml[m);l[46m)[m[58;197H7-44[15;44H[?25h[?25l[46m,[m);,[46m)[m[58;197H8-45[15;45H[?25h[?25l[46m [m); [46m)[m[58;197H9-46[15;46H[?25h[?25l[46mp[m);p[46m)[m[58;196H40-47[15;47H[?25h[?25l[46m[[m[1m[37m[41m);[17;17H;[m[15;47H[[1m[37m[46m)[m[1m[37m[41m;[m[58;197H1-48[15;48H[?25h[?25l[46mr[m[1m[37m[41m);[mr[1m[37m[46m)[m[1m[37m[41m;[m[58;197H2-49[15;49H[?25h[?25l[46mo[m[1m[37m[41m);[mo[1m[37m[46m)[m[1m[37m[41m;[m[58;197H3-50[15;50H[?25h[?25l[46mw[m[1m[37m[41m);[mw[1m[37m[46m)[m[1m[37m[41m;[m[58;197H4-51[15;51H[?25h[?25l[46m [m[1m[37m[41m);[m [1m[37m[46m)[m[1m[37m[41m;[m[58;197H5-52[15;52H[?25h[?25l[46m*[m[1m[37m[41m);[m*[1m[37m[46m)[m[1m[37m[41m;[m[58;197H6-53[15;53H[?25h[?25l[46m [m[1m[37m[41m);[m [1m[37m[46m)[m[1m[37m[41m;[m[58;197H7-54[15;54H[?25h[?25l[46mx[m[1m[37m[41m);[mx[1m[37m[46m)[m[1m[37m[41m;[m[58;197H8-55[15;55H[?25h[?25l[1m[37m[41m)[m[1m[37m[46m;[m[15;56H[K[15;54H[1m[37m[46m)[m[1m[37m[41m;[m[58;197H7-54[15;54H[?25h[?25l[1m[35m[46m4[m[1m[37m[41m);[m[1m[35m4[m[1m[37m[46m)[m[1m[37m[41m;[m[58;197H8-55[15;55H[?25h[?25l[46m [m[1m[37m[41m);[m [1m[37m[46m)[m[1m[37m[41m;[m[58;197H9-56[15;56H[?25h[?25l[46m+[m[1m[37m[41m);[m+[1m[37m[46m)[m[1m[37m[41m;[m[58;196H50-57[15;57H[?25h[?25l[46m [m[1m[37m[41m);[m [1m[37m[46m)[m[1m[37m[41m;[m[58;197H1-58[15;58H[?25h[?25l[46mc[m[1m[37m[41m);[mc[1m[37m[46m)[m[1m[37m[41m;[m[58;197H2-59[15;59H[?25h[?25l[46mo[m[1m[37m[41m);[mo[1m[37m[46m)[m[1m[37m[41m;[m[58;197H3-60[15;60H[?25h[?25l[46ml[m[1m[37m[41m);[ml[1m[37m[46m)[m[1m[37m[41m;[m[58;197H4-61[15;61H[?25h[?25l[46m][m);[17;17H;[15;61H][46m)[m[58;197H5-62[15;62H[?25h[?25l[58;197H6-63[15;63H[?25h[?25l[15;15H([46C)[58;197H7-64[15;64H[?25h[?25l[15;15H[46m([46C)[m[58;197H6-63[15;63H[?25h[?25l[58;197H5-62[15;62H[?25h[?25l[15;15H([31C[46m[[13C][m)[58;197H4-61[15;61H[?25h[?25l[15;47H[[13C][58;197H3-60[15;60H[?25h[?25l[58;197H2-59[15;59H[?25h[?25l[58;197H1-58[15;58H[?25h[?25l[58;197H0-57[15;57H[?25h[?25l[58;196H49-56[15;56H[?25h[?25l[58;197H8-55[15;55H[?25h[?25l[58;197H7-54[15;54H[?25h[?25l[58;197H6-53[15;53H[?25h[?25l[58;197H5-52[15;52H[?25h[?25l[58;197H4-51[15;51H[?25h[?25l[58;197H3-50[15;50H[?25h[?25l[58;197H2-49[15;49H[?25h[?25l[46m[[13C][m[58;197H1-48[15;48H[?25h[?25l[58;197H0-47[15;47H[?25h[?25l[[13C][58;196H39-46[15;46H[?25h[?25l[58;197H8-45[15;45H[?25h[?25l[58;197H7-44[15;44H[?25h[?25l[58;197H6-43[15;43H[?25h[?25l[58;197H5-42[15;42H[?25h[?25l[58;197H4-41[15;41H[?25h[?25l[58;197H3-40[15;40H[?25h[?25l[58;197H2-39[15;39H[?25h[?25l[58;197H1-38[15;38H[?25h[?25l[58;197H0-37[15;37H[?25h[?25l[58;197H1-38[15;38H[?25h[?25l + col, p[row * [1m[35m4[m + col]);[15;63H[K[58;197H0-37[15;37H[?25h[?25l( + col, p[row * [1m[35m4[m + col]);[15;37H[46m([24C)[m[58;197H1-38[15;38H[?25h[?25lc + col, p[row * [1m[35m4[m + col[46m][m);[15;37H([24C][58;197H2-39[15;39H[?25h[?25lo + col, p[row * [1m[35m4[m + col]);[58;197H3-40[15;40H[?25h[?25lk + col, p[row * [1m[35m4[m + col]);[58;197H4-41[15;41H[?25h[?25l + col, p[row * [1m[35m4[m + col]);[15;66H[K[58;197H3-40[15;40H[?25h[?25l + col, p[row * [1m[35m4[m + col]);[15;65H[K[58;197H2-39[15;39H[?25h[?25l + col, p[row * [1m[35m4[m + col]);[15;64H[K[15;37H[46m([24C)[m[58;197H1-38[15;38H[?25h[?25l[46m [m+ col, p[row * [1m[35m4[m + col])[46m;[m[15;63H[K[15;37H [24C;[58;197H0-37[15;37H[?25h[?25l[1m[35m2[m + col, p[row * [1m[35m4[m + col]);[58;197H1-38[15;38H[?25h[?25l[1m[35m0[m + col, p[row * [1m[35m4[m + col]);[58;197H2-39[15;39H[?25h[?25l[58;197H3-40[15;40H[?25h[?25l[58;197H4-41[15;41H[?25h[?25l[58;197H5-42[15;42H[?25h[?25l[58;197H6-43[15;43H[?25h[?25l[58;197H7-44[15;44H[?25h[?25l[58;197H8-45[15;45H[?25h[?25l[58;197H9-46[15;46H[?25h[?25l[58;196H40-47[15;47H[?25h[?25l[58;196H39-46[15;46H[?25h[?25l[58;197H8-45[15;45H[?25h[?25l , p[row * [1m[35m4[m + col]);[58;197H9-46[15;46H[?25h[?25l*, p[row * [1m[35m4[m + col]);[58;196H40-47[15;47H[?25h[?25l , p[row * [1m[35m4[m + col]);[58;197H1-48[15;48H[?25h[?25l[1m[35m4[m, p[row * [1m[35m4[m + col]);[58;197H2-49[15;49H[?25h[?25l[58;197H1-48[15;48H[?25h[?25l[58;197H0-47[15;47H[?25h[?25l[58;196H39-46[15;46H[?25h[?25l[58;196H40-47[15;47H[?25h[?25l[58;197H1-48[15;48H[?25h[?25l[58;197H2-49[15;49H[?25h[?25l[58;197H3-50[15;50H[?25h[?25l[58;197H4-51[15;51H[?25h[?25lp[46m[[13C][m[58;197H5-52[15;52H[?25h[?25l[58;197H6-53[15;53H[?25h[?25l[[13C][58;197H7-54[15;54H[?25h[?25l[58;197H8-55[15;55H[?25h[?25l[58;197H9-56[15;56H[?25h[?25l[58;196H50-57[15;57H[?25h[?25l[58;197H1-58[15;58H[?25h[?25l[58;197H2-59[15;59H[?25h[?25l[58;197H3-60[15;60H[?25h[?25l + col]);[15;68H[K[58;197H2-59[15;59H[?25h[?25l[1m[35m2[m + col]);[58;197H3-60[15;60H[?25h[?25l[1m[35m0[m + col]);[58;197H4-61[15;61H[?25h[?25l[58;197H5-62[15;62H[?25h[?25l[58;197H6-63[15;63H[?25h[?25l[58;197H7-64[15;64H[?25h[?25l[58;197H8-65[15;65H[?25h[?25l[58;197H9-66[15;66H[?25h[?25l[15;52H[46m[[14C][m[58;196H60-67[15;67H[?25h[?25l[15;15H[46m([m[36C[[14C][46m)[m[58;197H1-68[15;68H[?25h[?25l[15;15H([36C[46m[[14C][m)[58;197H0-67[15;67H[?25h[?25l[15;52H[[14C][58;196H59-66[15;66H[?25h[?25l[15;52H[46m[[14C][m[58;196H60-67[15;67H[?25h[?25l[46m [m]); [46m][m[58;197H1-68[15;68H[?25h[?25l[46m*[m]);*[46m][m[58;197H2-69[15;69H[?25h[?25l[46m [m]); [46m][m[58;197H3-70[15;70H[?25h[?25l[1m[35m[46m4[m]);[1m[35m4[m[46m][m[58;197H4-71[15;71H[?25h[58;1H[K[15;70H[?25l[58;183H^[[15;70H[58;183H  [15;71H[15;52H[[18C][58;193H15,63-70      All[15;70H[?25h[?25l[58;183H:[15;70H[58;183H[K[58;1H:[?25hwq[?25l[?2004l[>4;m"test2.c" [New] 18L, 332B written[23;2t[23;1t
[?1004l[?2004l[?1l>[?25h[>4;m[?1049l[23;0;0t[?2004h]0;chaehoon@chaehoon: ~/Projects/labs/lab8chaehoon@chaehoon:~/Projects/labs/lab8$ gcc -g -c test2.c -o test2.o
[?2004l[?2004h]0;chaehoon@chaehoon: ~/Projects/labs/lab8chaehoon@chaehoon:~/Projects/labs/lab8$ obd[Kjdump -S test2.c
[?2004lobjdump: test2.c: file format not recognized
[?2004h]0;chaehoon@chaehoon: ~/Projects/labs/lab8chaehoon@chaehoon:~/Projects/labs/lab8$ objdump -S test2.c[Ko
[?2004l
test2.o:     file format elf64-x86-64


Disassembly of section .text:

0000000000000000 <main>:
#include <stdio.h>
#include <stdlib.h>

int main(int argc, char** argv) {
   0:	f3 0f 1e fa          	endbr64 
   4:	55                   	push   %rbp
   5:	48 89 e5             	mov    %rsp,%rbp
   8:	48 81 ec 90 00 00 00 	sub    $0x90,%rsp
   f:	89 bd 7c ff ff ff    	mov    %edi,-0x84(%rbp)
  15:	48 89 b5 70 ff ff ff 	mov    %rsi,-0x90(%rbp)
  1c:	64 48 8b 04 25 28 00 	mov    %fs:0x28,%rax
  23:	00 00 
  25:	48 89 45 f8          	mov    %rax,-0x8(%rbp)
  29:	31 c0                	xor    %eax,%eax
	int i, row, col, arr[4][5];
	int* p = &arr[0][0];
  2b:	48 8d 45 a0          	lea    -0x60(%rbp),%rax
  2f:	48 89 45 98          	mov    %rax,-0x68(%rbp)
	row = 2;
  33:	c7 45 90 02 00 00 00 	movl   $0x2,-0x70(%rbp)
	col = 3;
  3a:	c7 45 94 03 00 00 00 	movl   $0x3,-0x6c(%rbp)

	for(int i = 0; i < 4 * 5; i++) {
  41:	c7 45 8c 00 00 00 00 	movl   $0x0,-0x74(%rbp)
  48:	eb 1d                	jmp    67 <main+0x67>
		p[i] = i;
  4a:	8b 45 8c             	mov    -0x74(%rbp),%eax
  4d:	48 98                	cltq   
  4f:	48 8d 14 85 00 00 00 	lea    0x0(,%rax,4),%rdx
  56:	00 
  57:	48 8b 45 98          	mov    -0x68(%rbp),%rax
  5b:	48 01 c2             	add    %rax,%rdx
  5e:	8b 45 8c             	mov    -0x74(%rbp),%eax
  61:	89 02                	mov    %eax,(%rdx)
	for(int i = 0; i < 4 * 5; i++) {
  63:	83 45 8c 01          	addl   $0x1,-0x74(%rbp)
  67:	83 7d 8c 13          	cmpl   $0x13,-0x74(%rbp)
  6b:	7e dd                	jle    4a <main+0x4a>
	}

	printf("arr[%d][%d]: %d\n", row, col, arr[row][col]);
  6d:	8b 45 94             	mov    -0x6c(%rbp),%eax
  70:	48 63 c8             	movslq %eax,%rcx
  73:	8b 45 90             	mov    -0x70(%rbp),%eax
  76:	48 63 d0             	movslq %eax,%rdx
  79:	48 89 d0             	mov    %rdx,%rax
  7c:	48 c1 e0 02          	shl    $0x2,%rax
  80:	48 01 d0             	add    %rdx,%rax
  83:	48 01 c8             	add    %rcx,%rax
  86:	8b 4c 85 a0          	mov    -0x60(%rbp,%rax,4),%ecx
  8a:	8b 55 94             	mov    -0x6c(%rbp),%edx
  8d:	8b 45 90             	mov    -0x70(%rbp),%eax
  90:	89 c6                	mov    %eax,%esi
  92:	48 8d 05 00 00 00 00 	lea    0x0(%rip),%rax        # 99 <main+0x99>
  99:	48 89 c7             	mov    %rax,%rdi
  9c:	b8 00 00 00 00       	mov    $0x0,%eax
  a1:	e8 00 00 00 00       	call   a6 <main+0xa6>
	printf("p[%d]: %d\n", row * 20 + col * 4, p[row * 20 + col * 4]);
  a6:	8b 55 90             	mov    -0x70(%rbp),%edx
  a9:	89 d0                	mov    %edx,%eax
  ab:	c1 e0 02             	shl    $0x2,%eax
  ae:	01 c2                	add    %eax,%edx
  b0:	8b 45 94             	mov    -0x6c(%rbp),%eax
  b3:	01 d0                	add    %edx,%eax
  b5:	c1 e0 02             	shl    $0x2,%eax
  b8:	48 98                	cltq   
  ba:	48 8d 14 85 00 00 00 	lea    0x0(,%rax,4),%rdx
  c1:	00 
  c2:	48 8b 45 98          	mov    -0x68(%rbp),%rax
  c6:	48 01 d0             	add    %rdx,%rax
  c9:	8b 10                	mov    (%rax),%edx
  cb:	8b 4d 90             	mov    -0x70(%rbp),%ecx
  ce:	89 c8                	mov    %ecx,%eax
  d0:	c1 e0 02             	shl    $0x2,%eax
  d3:	01 c1                	add    %eax,%ecx
  d5:	8b 45 94             	mov    -0x6c(%rbp),%eax
  d8:	01 c8                	add    %ecx,%eax
  da:	c1 e0 02             	shl    $0x2,%eax
  dd:	89 c6                	mov    %eax,%esi
  df:	48 8d 05 00 00 00 00 	lea    0x0(%rip),%rax        # e6 <main+0xe6>
  e6:	48 89 c7             	mov    %rax,%rdi
  e9:	b8 00 00 00 00       	mov    $0x0,%eax
  ee:	e8 00 00 00 00       	call   f3 <main+0xf3>

	return 0;
  f3:	b8 00 00 00 00       	mov    $0x0,%eax
}
  f8:	48 8b 55 f8          	mov    -0x8(%rbp),%rdx
  fc:	64 48 2b 14 25 28 00 	sub    %fs:0x28,%rdx
 103:	00 00 
 105:	74 05                	je     10c <main+0x10c>
 107:	e8 00 00 00 00       	call   10c <main+0x10c>
 10c:	c9                   	leave  
 10d:	c3                   	ret    
[?2004h]0;chaehoon@chaehoon: ~/Projects/labs/lab8chaehoon@chaehoon:~/Projects/labs/lab8$ objdump -S test2.ocgcc -g -c test2.c -o test2.o[18Pvi test2.c
[?2004l[?1049h[22;0;0t[>4;2m[?1h=[?2004h[?1004h[1;58r[?12h[?12l[22;2t[22;1t[27m[23m[29m[m[H[2J[?25l[58;1H"test2.c" 18L, 332B[2;1H▽[6n[2;1H  [3;1HPzz\[0%m[6n[3;1H           [1;1H[>c]10;?]11;?[1;1H[35m#include [m[31m<stdio.h>[m
[35m#include [m[31m<stdlib.h>[m[2;20H[K[3;1H[K[4;1H[32mint[m main([32mint[m argc, [32mchar[m** argv) {[5;9H[32mint[m i, row, col, arr[[31m4[m][[31m5[m];[6;9H[32mint[m* p = &arr[[31m0[m][[31m0[m];[7;9Hrow = [31m2[m;[8;9Hcol = [31m3[m;[10;9H[33mfor[m([32mint[m i = [31m0[m; i < [31m4[m * [31m5[m; i++) {[11;17Hp[i] = i;[12;9H}[14;9Hprintf([31m"arr[[m[35m%d[m[31m][[m[35m%d[m[31m]: [m[35m%d\n[m[31m"[m, row, col, arr[row][col]);[15;9Hprintf([31m"p[[m[35m%d[m[31m]: [m[35m%d\n[m[31m"[m, row * [31m20[m + col * [31m4[m, p[row * [31m20[m + col * [31m4[m]);[17;9H[33mreturn[m [31m0[m;
}
[1m[34m~                                                                                                                                                                                                                 [20;1H~                                                                                                                                                                                                                 [21;1H~                                                                                                                                                                                                                 [22;1H~                                                                                                                                                                                                                 [23;1H~                                                                                                                                                                                                                 [24;1H~                                                                                                                                                                                                                 [25;1H~                                                                                                                                                                                                                 [26;1H~                                                                                                                                                                                                                 [27;1H~                                                                                                                                                                                                                 [28;1H~                                                                                                                                                                                                                 [29;1H~                                                                                                                                                                                                                 [30;1H~                                                                                                                                                                                                                 [31;1H~                                                                                                                                                                                                                 [32;1H~                                                                                                                                                                                                                 [33;1H~                                                                                                                                                                                                                 [34;1H~                                                                                                                                                                                                                 [35;1H~                                                                                                                                                                                                                 [36;1H~                                                                                                                                                                                                                 [37;1H~                                                                                                                                                                                                                 [38;1H~                                                                                                                                                                                                                 [39;1H~                                                                                                                                                                                                                 [40;1H~                                                                                                                                                                                                                 [41;1H~                                                                                                                                                                                                                 [42;1H~                                                                                                                                                                                                                 [43;1H~                                                                                                                                                                                                                 [44;1H~                                                                                                                                                                                                                 [45;1H~                                                                                                                                                                                                                 [46;1H~                                                                                                                                                                                                                 [47;1H~                                                                                                                                                                                                                 [48;1H~                                                                                                                                                                                                                 [49;1H~                                                                                                                                                                                                                 [50;1H~                                                                                                                                                                                                                 [51;1H~                                                                                                                                                                                                                 [52;1H~                                                                                                                                                                                                                 [53;1H~                                                                                                                                                                                                                 [54;1H~                                                                                                                                                                                                                 [55;1H~                                                                                                                                                                                                                 [56;1H~                                                                                                                                                                                                                 [57;1H~                                                                                                                                                                                                                 [m[58;193H15,63-70      All[15;70H[?25h[?12$p[?25l[58;183H^[[15;70H[58;185H][15;70H[58;186H1[15;70H[58;187H1[15;70H[58;183H     [15;70H[27m[23m[29m[m[H[2J[1;1H[1m[34m#include [m[1m[35m<stdio.h>[m
[1m[34m#include [m[1m[35m<stdlib.h>[m

[1m[32mint[m main([1m[32mint[m argc, [1m[32mchar[m** argv) {[5;9H[1m[32mint[m i, row, col, arr[[1m[35m4[m][[1m[35m5[m];[6;9H[1m[32mint[m* p = &arr[[1m[35m0[m][[1m[35m0[m];[7;9Hrow = [1m[35m2[m;[8;9Hcol = [1m[35m3[m;[10;9H[1m[33mfor[m([1m[32mint[m i = [1m[35m0[m; i < [1m[35m4[m * [1m[35m5[m; i++) {[11;17Hp[i] = i;[12;9H}[14;9Hprintf([1m[35m"arr[[m[1m[31m%d[m[1m[35m][[m[1m[31m%d[m[1m[35m]: [m[1m[31m%d\n[m[1m[35m"[m, row, col, arr[row][col]);[15;9Hprintf([1m[35m"p[[m[1m[31m%d[m[1m[35m]: [m[1m[31m%d\n[m[1m[35m"[m, row * [1m[35m20[m + col * [1m[35m4[m, p[row * [1m[35m20[m + col * [1m[35m4[m]);[17;9H[1m[33mreturn[m [1m[35m0[m;
}
[1m[34m~                                                                                                                                                                                                                 [20;1H~                                                                                                                                                                                                                 [21;1H~                                                                                                                                                                                                                 [22;1H~                                                                                                                                                                                                                 [23;1H~                                                                                                                                                                                                                 [24;1H~                                                                                                                                                                                                                 [25;1H~                                                                                                                                                                                                                 [26;1H~                                                                                                                                                                                                                 [27;1H~                                                                                                                                                                                                                 [28;1H~                                                                                                                                                                                                                 [29;1H~                                                                                                                                                                                                                 [30;1H~                                                                                                                                                                                                                 [31;1H~                                                                                                                                                                                                                 [32;1H~                                                                                                                                                                                                                 [33;1H~                                                                                                                                                                                                                 [34;1H~                                                                                                                                                                                                                 [35;1H~                                                                                                                                                                                                                 [36;1H~                                                                                                                                                                                                                 [37;1H~                                                                                                                                                                                                                 [38;1H~                                                                                                                                                                                                                 [39;1H~                                                                                                                                                                                                                 [40;1H~                                                                                                                                                                                                                 [41;1H~                                                                                                                                                                                                                 [42;1H~                                                                                                                                                                                                                 [43;1H~                                                                                                                                                                                                                 [44;1H~                                                                                                                                                                                                                 [45;1H~                                                                                                                                                                                                                 [46;1H~                                                                                                                                                                                                                 [47;1H~                                                                                                                                                                                                                 [48;1H~                                                                                                                                                                                                                 [49;1H~                                                                                                                                                                                                                 [50;1H~                                                                                                                                                                                                                 [51;1H~                                                                                                                                                                                                                 [52;1H~                                                                                                                                                                                                                 [53;1H~                                                                                                                                                                                                                 [54;1H~                                                                                                                                                                                                                 [55;1H~                                                                                                                                                                                                                 [56;1H~                                                                                                                                                                                                                 [57;1H~                                                                                                                                                                                                                 [m[58;193H15,63-70      All"test2.c" 18L, 332B[15;70H[?25h[?25l[58;183Hi[15;70H[58;183H [15;70H[58;1H[1m-- INSERT --[m[58;13H[K[58;193H15,63-70      All[15;70H[?25h[?25l[58;194H4,55-62[14;62H[?25h[?25l[58;194H5,63-70[15;70H[?25h[?25l[15;52H[46m[[18C][m[58;197H4-71[15;71H[?25h[?25l][46m)[m;[15;73H[K[15;70H[46m][m)[58;197H3-70[15;70H[?25h[?25l][46m)[m;[15;72H[K[15;69H[46m][m)[58;197H2-69[15;69H[?25h[?25l][46m)[m;[15;71H[K[15;68H[46m][m)[58;197H1-68[15;68H[?25h[?25l][46m)[m;[15;70H[K[15;67H[46m][m)[58;197H0-67[15;67H[?25h[?25l[15;52H[[14C][58;196H59-66[15;66H[?25h[?25l[58;197H8-65[15;65H[?25h[?25l[58;197H7-64[15;64H[?25h[?25l[58;197H6-63[15;63H[?25h[?25l[58;197H5-62[15;62H[?25h[?25l[58;197H4-61[15;61H[?25h[?25l + col]);[15;69H[K[58;197H3-60[15;60H[?25h[?25l + col]);[15;68H[K[58;197H2-59[15;59H[?25h[?25l[1m[35m5[m + col]);[58;197H3-60[15;60H[?25h[?25l[58;197H2-59[15;59H[?25h[?25l[58;197H1-58[15;58H[?25h[?25l[58;197H0-57[15;57H[?25h[?25l[58;196H49-56[15;56H[?25h[?25l[58;197H8-55[15;55H[?25h[?25l[58;197H7-54[15;54H[?25h[?25l[46m[[13C][m[58;197H6-53[15;53H[?25h[?25l[58;197H5-52[15;52H[?25h[?25l[[13C][58;197H4-51[15;51H[?25h[?25l[58;197H3-50[15;50H[?25h[?25l[58;197H2-49[15;49H[?25h[?25l, p[row * [1m[35m5[m + col]);[15;68H[K[58;197H1-48[15;48H[?25h[?25l, p[row * [1m[35m5[m + col]);[15;67H[K[58;197H0-47[15;47H[?25h[?25l, p[row * [1m[35m5[m + col]);[15;66H[K[58;196H39-46[15;46H[?25h[?25l, p[row * [1m[35m5[m + col]);[15;65H[K[58;197H8-45[15;45H[?25h[?25l[58;197H7-44[15;44H[?25h[?25l[58;197H6-43[15;43H[?25h[?25l[58;197H5-42[15;42H[?25h[?25l[58;197H4-41[15;41H[?25h[?25l[58;197H3-40[15;40H[?25h[?25l[58;197H2-39[15;39H[?25h[?25l[58;197H1-38[15;38H[?25h[?25l[58;197H0-37[15;37H[?25h[?25l[58;196H29-36[15;36H[?25h[?25l[58;196H30-37[15;37H[?25h[?25l[58;197H1-38[15;38H[?25h[?25l[58;197H2-39[15;39H[?25h[?25l + col, p[row * [1m[35m5[m + col]);[15;64H[K[58;197H1-38[15;38H[?25h[?25l + col, p[row * [1m[35m5[m + col]);[15;63H[K[58;197H0-37[15;37H[?25h[?25l[1m[35m5[m + col, p[row * [1m[35m5[m + col]);[58;197H1-38[15;38H[?25h[58;1H[K[15;37H[?25l[58;183H^[[15;37H[58;183H  [15;38H[58;193H15,30-37      All[15;37H[?25h[?25l[58;183H:[15;37H[58;183H[K[58;1H:[?25hwq[?25l[?2004l[>4;m"test2.c" 18L, 322B written[23;2t[23;1t
[?1004l[?2004l[?1l>[?25h[>4;m[?1049l[23;0;0t[?2004h]0;chaehoon@chaehoon: ~/Projects/labs/lab8chaehoon@chaehoon:~/Projects/labs/lab8$ vi test2.cobjdump -S test2.ocgcc -g -c test2.c -o test2.o
[?2004l[?2004h]0;chaehoon@chaehoon: ~/Projects/labs/lab8chaehoon@chaehoon:~/Projects/labs/lab8$ gcc -g -c test2.c -o test2.o[18Pvi test2.cobjdump -S test2.o
[?2004l
test2.o:     file format elf64-x86-64


Disassembly of section .text:

0000000000000000 <main>:
#include <stdio.h>
#include <stdlib.h>

int main(int argc, char** argv) {
   0:	f3 0f 1e fa          	endbr64 
   4:	55                   	push   %rbp
   5:	48 89 e5             	mov    %rsp,%rbp
   8:	48 81 ec 90 00 00 00 	sub    $0x90,%rsp
   f:	89 bd 7c ff ff ff    	mov    %edi,-0x84(%rbp)
  15:	48 89 b5 70 ff ff ff 	mov    %rsi,-0x90(%rbp)
  1c:	64 48 8b 04 25 28 00 	mov    %fs:0x28,%rax
  23:	00 00 
  25:	48 89 45 f8          	mov    %rax,-0x8(%rbp)
  29:	31 c0                	xor    %eax,%eax
	int i, row, col, arr[4][5];
	int* p = &arr[0][0];
  2b:	48 8d 45 a0          	lea    -0x60(%rbp),%rax
  2f:	48 89 45 98          	mov    %rax,-0x68(%rbp)
	row = 2;
  33:	c7 45 90 02 00 00 00 	movl   $0x2,-0x70(%rbp)
	col = 3;
  3a:	c7 45 94 03 00 00 00 	movl   $0x3,-0x6c(%rbp)

	for(int i = 0; i < 4 * 5; i++) {
  41:	c7 45 8c 00 00 00 00 	movl   $0x0,-0x74(%rbp)
  48:	eb 1d                	jmp    67 <main+0x67>
		p[i] = i;
  4a:	8b 45 8c             	mov    -0x74(%rbp),%eax
  4d:	48 98                	cltq   
  4f:	48 8d 14 85 00 00 00 	lea    0x0(,%rax,4),%rdx
  56:	00 
  57:	48 8b 45 98          	mov    -0x68(%rbp),%rax
  5b:	48 01 c2             	add    %rax,%rdx
  5e:	8b 45 8c             	mov    -0x74(%rbp),%eax
  61:	89 02                	mov    %eax,(%rdx)
	for(int i = 0; i < 4 * 5; i++) {
  63:	83 45 8c 01          	addl   $0x1,-0x74(%rbp)
  67:	83 7d 8c 13          	cmpl   $0x13,-0x74(%rbp)
  6b:	7e dd                	jle    4a <main+0x4a>
	}

	printf("arr[%d][%d]: %d\n", row, col, arr[row][col]);
  6d:	8b 45 94             	mov    -0x6c(%rbp),%eax
  70:	48 63 c8             	movslq %eax,%rcx
  73:	8b 45 90             	mov    -0x70(%rbp),%eax
  76:	48 63 d0             	movslq %eax,%rdx
  79:	48 89 d0             	mov    %rdx,%rax
  7c:	48 c1 e0 02          	shl    $0x2,%rax
  80:	48 01 d0             	add    %rdx,%rax
  83:	48 01 c8             	add    %rcx,%rax
  86:	8b 4c 85 a0          	mov    -0x60(%rbp,%rax,4),%ecx
  8a:	8b 55 94             	mov    -0x6c(%rbp),%edx
  8d:	8b 45 90             	mov    -0x70(%rbp),%eax
  90:	89 c6                	mov    %eax,%esi
  92:	48 8d 05 00 00 00 00 	lea    0x0(%rip),%rax        # 99 <main+0x99>
  99:	48 89 c7             	mov    %rax,%rdi
  9c:	b8 00 00 00 00       	mov    $0x0,%eax
  a1:	e8 00 00 00 00       	call   a6 <main+0xa6>
	printf("p[%d]: %d\n", row * 5 + col, p[row * 5 + col]);
  a6:	8b 55 90             	mov    -0x70(%rbp),%edx
  a9:	89 d0                	mov    %edx,%eax
  ab:	c1 e0 02             	shl    $0x2,%eax
  ae:	01 c2                	add    %eax,%edx
  b0:	8b 45 94             	mov    -0x6c(%rbp),%eax
  b3:	01 d0                	add    %edx,%eax
  b5:	48 98                	cltq   
  b7:	48 8d 14 85 00 00 00 	lea    0x0(,%rax,4),%rdx
  be:	00 
  bf:	48 8b 45 98          	mov    -0x68(%rbp),%rax
  c3:	48 01 d0             	add    %rdx,%rax
  c6:	8b 10                	mov    (%rax),%edx
  c8:	8b 4d 90             	mov    -0x70(%rbp),%ecx
  cb:	89 c8                	mov    %ecx,%eax
  cd:	c1 e0 02             	shl    $0x2,%eax
  d0:	01 c1                	add    %eax,%ecx
  d2:	8b 45 94             	mov    -0x6c(%rbp),%eax
  d5:	01 c8                	add    %ecx,%eax
  d7:	89 c6                	mov    %eax,%esi
  d9:	48 8d 05 00 00 00 00 	lea    0x0(%rip),%rax        # e0 <main+0xe0>
  e0:	48 89 c7             	mov    %rax,%rdi
  e3:	b8 00 00 00 00       	mov    $0x0,%eax
  e8:	e8 00 00 00 00       	call   ed <main+0xed>

	return 0;
  ed:	b8 00 00 00 00       	mov    $0x0,%eax
}
  f2:	48 8b 55 f8          	mov    -0x8(%rbp),%rdx
  f6:	64 48 2b 14 25 28 00 	sub    %fs:0x28,%rdx
  fd:	00 00 
  ff:	74 05                	je     106 <main+0x106>
 101:	e8 00 00 00 00       	call   106 <main+0x106>
 106:	c9                   	leave  
 107:	c3                   	ret    
[?2004h]0;chaehoon@chaehoon: ~/Projects/labs/lab8chaehoon@chaehoon:~/Projects/labs/lab8$ vi test3.c
[?2004l[?1049h[22;0;0t[>4;2m[?1h=[?2004h[?1004h[1;58r[?12h[?12l[22;2t[22;1t[27m[23m[29m[m[H[2J[?25l[58;1H"test3.c" [New][2;1H▽[6n[2;1H  [3;1HPzz\[0%m[6n[3;1H           [1;1H[>c]10;?]11;?[2;1H[1m[34m~                                                                                                                                                                                                                 [3;1H~                                                                                                                                                                                                                 [4;1H~                                                                                                                                                                                                                 [5;1H~                                                                                                                                                                                                                 [6;1H~                                                                                                                                                                                                                 [7;1H~                                                                                                                                                                                                                 [8;1H~                                                                                                                                                                                                                 [9;1H~                                                                                                                                                                                                                 [10;1H~                                                                                                                                                                                                                 [11;1H~                                                                                                                                                                                                                 [12;1H~                                                                                                                                                                                                                 [13;1H~                                                                                                                                                                                                                 [14;1H~                                                                                                                                                                                                                 [15;1H~                                                                                                                                                                                                                 [16;1H~                                                                                                                                                                                                                 [17;1H~                                                                                                                                                                                                                 [18;1H~                                                                                                                                                                                                                 [19;1H~                                                                                                                                                                                                                 [20;1H~                                                                                                                                                                                                                 [21;1H~                                                                                                                                                                                                                 [22;1H~                                                                                                                                                                                                                 [23;1H~                                                                                                                                                                                                                 [24;1H~                                                                                                                                                                                                                 [25;1H~                                                                                                                                                                                                                 [26;1H~                                                                                                                                                                                                                 [27;1H~                                                                                                                                                                                                                 [28;1H~                                                                                                                                                                                                                 [29;1H~                                                                                                                                                                                                                 [30;1H~                                                                                                                                                                                                                 [31;1H~                                                                                                                                                                                                                 [32;1H~                                                                                                                                                                                                                 [33;1H~                                                                                                                                                                                                                 [34;1H~                                                                                                                                                                                                                 [35;1H~                                                                                                                                                                                                                 [36;1H~                                                                                                                                                                                                                 [37;1H~                                                                                                                                                                                                                 [38;1H~                                                                                                                                                                                                                 [39;1H~                                                                                                                                                                                                                 [40;1H~                                                                                                                                                                                                                 [41;1H~                                                                                                                                                                                                                 [42;1H~                                                                                                                                                                                                                 [43;1H~                                                                                                                                                                                                                 [44;1H~                                                                                                                                                                                                                 [45;1H~                                                                                                                                                                                                                 [46;1H~                                                                                                                                                                                                                 [47;1H~                                                                                                                                                                                                                 [48;1H~                                                                                                                                                                                                                 [49;1H~                                                                                                                                                                                                                 [50;1H~                                                                                                                                                                                                                 [51;1H~                                                                                                                                                                                                                 [52;1H~                                                                                                                                                                                                                 [53;1H~                                                                                                                                                                                                                 [54;1H~                                                                                                                                                                                                                 [55;1H~                                                                                                                                                                                                                 [56;1H~                                                                                                                                                                                                                 [57;1H~                                                                                                                                                                                                                 [m[58;193H0,0-1[9CAll[1;1H[?25h[?12$p[?25l[58;183H0[1;1H[58;184H0[1;1H[58;185H0[1;1H[58;186H/[1;1H[58;187H0[1;1H[58;188H0[1;1H[58;189H0[1;1H[58;190H0[1;1H[58;191H/[1;1H[58;192H0[1;1H[58;183H          [1;1H[27m[23m[29m[m[H[2J[2;1H[1m[34m~                                                                                                                                                                                                                 [3;1H~                                                                                                                                                                                                                 [4;1H~                                                                                                                                                                                                                 [5;1H~                                                                                                                                                                                                                 [6;1H~                                                                                                                                                                                                                 [7;1H~                                                                                                                                                                                                                 [8;1H~                                                                                                                                                                                                                 [9;1H~                                                                                                                                                                                                                 [10;1H~                                                                                                                                                                                                                 [11;1H~                                                                                                                                                                                                                 [12;1H~                                                                                                                                                                                                                 [13;1H~                                                                                                                                                                                                                 [14;1H~                                                                                                                                                                                                                 [15;1H~                                                                                                                                                                                                                 [16;1H~                                                                                                                                                                                                                 [17;1H~                                                                                                                                                                                                                 [18;1H~                                                                                                                                                                                                                 [19;1H~                                                                                                                                                                                                                 [20;1H~                                                                                                                                                                                                                 [21;1H~                                                                                                                                                                                                                 [22;1H~                                                                                                                                                                                                                 [23;1H~                                                                                                                                                                                                                 [24;1H~                                                                                                                                                                                                                 [25;1H~                                                                                                                                                                                                                 [26;1H~                                                                                                                                                                                                                 [27;1H~                                                                                                                                                                                                                 [28;1H~                                                                                                                                                                                                                 [29;1H~                                                                                                                                                                                                                 [30;1H~                                                                                                                                                                                                                 [31;1H~                                                                                                                                                                                                                 [32;1H~                                                                                                                                                                                                                 [33;1H~                                                                                                                                                                                                                 [34;1H~                                                                                                                                                                                                                 [35;1H~                                                                                                                                                                                                                 [36;1H~                                                                                                                                                                                                                 [37;1H~                                                                                                                                                                                                                 [38;1H~                                                                                                                                                                                                                 [39;1H~                                                                                                                                                                                                                 [40;1H~                                                                                                                                                                                                                 [41;1H~                                                                                                                                                                                                                 [42;1H~                                                                                                                                                                                                                 [43;1H~                                                                                                                                                                                                                 [44;1H~                                                                                                                                                                                                                 [45;1H~                                                                                                                                                                                                                 [46;1H~                                                                                                                                                                                                                 [47;1H~                                                                                                                                                                                                                 [48;1H~                                                                                                                                                                                                                 [49;1H~                                                                                                                                                                                                                 [50;1H~                                                                                                                                                                                                                 [51;1H~                                                                                                                                                                                                                 [52;1H~                                                                                                                                                                                                                 [53;1H~                                                                                                                                                                                                                 [54;1H~                                                                                                                                                                                                                 [55;1H~                                                                                                                                                                                                                 [56;1H~                                                                                                                                                                                                                 [57;1H~                                                                                                                                                                                                                 [m[58;193H0,0-1[9CAll"test3.c" [New][1;1H[?25h[?25l[58;183Hi[1;1H[58;183H [1;1H[58;1H[1m-- INSERT --[m[58;13H[K[58;193H0,1[11CAll[1;1H[?25h[?25l#[58;193H1,2[1;2H[?25h[?25li[58;195H3[1;3H[?25h[?25ln[58;195H4[1;4H[?25h[?25lc[58;195H5[1;5H[?25h[?25ll[58;195H6[1;6H[?25h[?25lu[58;195H7[1;7H[?25h[?25ld[58;195H8[1;8H[?25h[?25le[58;195H9[1;9H[?25h[?25l[58;195H10[1;10H[?25h[?25l[1m[34m#include <[m[58;196H1[1;11H[?25h[?25ls[58;196H2[1;12H[?25h[?25lt[58;196H3[1;13H[?25h[?25ld[58;196H4[1;14H[?25h[?25li[58;196H5[1;15H[?25h[?25lo[58;196H6[1;16H[?25h[?25l.[58;196H7[1;17H[?25h[?25lh[58;196H8[1;18H[?25h[?25l[1;10H[1m[35m<stdio.h>[m[58;196H9[1;19H[?25h[?25l[2;1H[K[58;193H2,1 [2;1H[?25h[?25l[3;1H[K[58;193H3[3;1H[?25h[?25li[58;195H2[3;2H[?25h[?25ln[58;195H3[3;3H[?25h[?25l[1m[32mint[m[58;195H4[3;4H[?25h[?25l[58;195H5[3;5H[?25h[?25l[58;195H4[3;4H[?25h[?25lin[3;3H[K[58;195H3[3;3H[?25h[?25l[3;2H[K[58;195H2[3;2H[?25h[?25l[3;1H[K[58;195H1[3;1H[?25h[?25ls[58;195H2[3;2H[?25h[?25lt[58;195H3[3;3H[?25h[?25lr[58;195H4[3;4H[?25h[?25lu[58;195H5[3;5H[?25h[?25lc[58;195H6[3;6H[?25h[?25l[1m[32mstruct[m[58;195H7[3;7H[?25h[?25l[58;195H8[3;8H[?25h[?25lm[58;195H9[3;9H[?25h[?25ly[58;195H10[3;10H[?25h[?25l_[58;196H1[3;11H[?25h[?25ls[58;196H2[3;12H[?25h[?25lt[58;196H3[3;13H[?25h[?25lr[58;196H4[3;14H[?25h[?25lu[58;196H5[3;15H[?25h[?25lt[58;196H6[3;16H[?25h[?25l[58;196H7[3;17H[?25h[?25l{[58;196H8[3;18H[?25h[?25l
        [4;9H[K[58;193H4,2-9[4;9H[?25h[?25lc[58;195H3-10[4;10H[?25h[?25lh[58;195H4-11[4;11H[?25h[?25la[58;195H5-12[4;12H[?25h[?25la[58;195H6-13[4;13H[?25h[?25lr[58;195H7-14[4;14H[?25h[?25l[58;195H8-15[4;15H[?25h[?25la[58;195H9-16[4;16H[?25h[?25l[4;15H[K[58;195H8-15[4;15H[?25h[?25l[58;195H7-14[4;14H[?25h[?25l[4;13H[K[58;195H6-13[4;13H[?25h[?25l[4;12H[K[58;195H5-12[4;12H[?25h[?25l[1m[32mchar[m[58;195H6-13[4;13H[?25h[?25l[58;195H7-14[4;14H[?25h[?25la[58;195H8-15[4;15H[?25h[?25l;[58;195H9-16[4;16H[?25h[?25l
        [5;9H[K[58;193H5,2-9 [5;9H[?25h[?25ls[58;195H3-10[5;10H[?25h[?25lh[58;195H4-11[5;11H[?25h[?25lo[58;195H5-12[5;12H[?25h[?25lr[58;195H6-13[5;13H[?25h[?25l[1m[32mshort[m[58;195H7-14[5;14H[?25h[?25l[58;195H8-15[5;15H[?25h[?25lb[58;195H9-16[5;16H[?25h[?25l;[58;195H10-17[5;17H[?25h[?25l
        [6;9H[K[58;193H6,2-9  [6;9H[?25h[?25li[58;195H3-10[6;10H[?25h[?25ln[58;195H4-11[6;11H[?25h[?25l[1m[32mint[m[58;195H5-12[6;12H[?25h[?25l[58;195H6-13[6;13H[?25h[?25lc[58;195H7-14[6;14H[?25h[?25l;[58;195H8-15[6;15H[?25h[?25l
        [7;9H[K[58;193H7,2-9 [7;9H[?25h[?25li[58;195H3-10[7;10H[?25h[?25ln[58;195H4-11[7;11H[?25h[?25l[1m[32mint[m[58;195H5-12[7;12H[?25h[?25l[58;195H6-13[7;13H[?25h[?25lc[58;195H7-14[7;14H[?25h[?25l[7;13H[K[58;195H6-13[7;13H[?25h[?25l[58;195H5-12[7;12H[?25h[?25lin[7;11H[K[58;195H4-11[7;11H[?25h[?25l[7;10H[K[58;195H3-10[7;10H[?25h[?25l[7;9H[K[58;195H2-9 [7;9H[?25h[?25lv[58;195H3-10[7;10H[?25h[?25lo[58;195H4-11[7;11H[?25h[?25li[58;195H5-12[7;12H[?25h[?25l[1m[32mvoid[m[58;195H6-13[7;13H[?25h[?25l*[58;195H7-14[7;14H[?25h[?25l[58;195H8-15[7;15H[?25h[?25ld[58;195H9-16[7;16H[?25h[?25l;[58;195H10-17[7;17H[?25h[?25l
        [8;9H[K[58;193H8,2-9  [8;9H[?25h[?25l}[3;17H[46m{[8;1H}[m[58;196H  [8;2H[?25h[?25l[9;1H[K[3;17H{[8;1H}[58;193H9,1[9;1H[?25h[?25l[10;1H[K[58;193H10,1[10;1H[?25h[?25li[58;196H2[10;2H[?25h[?25ln[58;196H3[10;3H[?25h[?25l[1m[32mint[m[58;196H4[10;4H[?25h[?25l[58;196H5[10;5H[?25h[?25lm[58;196H6[10;6H[?25h[?25la[58;196H7[10;7H[?25h[?25li[58;196H8[10;8H[?25h[?25ln[58;196H9[10;9H[?25h[?25l([58;196H10[10;10H[?25h[?25lv[58;197H1[10;11H[?25h[?25lo[58;197H2[10;12H[?25h[?25li[58;197H3[10;13H[?25h[?25l[1m[32mvoid[m[58;197H4[10;14H[?25h[?25l)[46m([4C)[m[58;197H5[10;15H[?25h[?25l([4C)[58;197H6[10;16H[?25h[?25l{[58;197H7[10;17H[?25h[?25l
        [11;9H[K[58;194H1,2-9[11;9H[?25h[?25ls[58;196H3-10[11;10H[?25h[?25lt[58;196H4-11[11;11H[?25h[?25lr[58;196H5-12[11;12H[?25h[?25lu[58;196H6-13[11;13H[?25h[?25lc[58;196H7-14[11;14H[?25h[?25l[1m[32mstruct[m[58;196H8-15[11;15H[?25h[?25l[58;196H9-16[11;16H[?25h[?25lm[58;196H10-17[11;17H[?25h[?25ly[58;197H1-18[11;18H[?25h[?25l_[58;197H2-19[11;19H[?25h[?25ls[58;197H3-20[11;20H[?25h[?25lt[58;197H4-21[11;21H[?25h[?25lr[58;197H5-22[11;22H[?25h[?25lu[58;197H6-23[11;23H[?25h[?25lc[58;197H7-24[11;24H[?25h[?25lt[58;197H8-25[11;25H[?25h[?25l[58;197H9-26[11;26H[?25h[?25lt[58;196H20-27[11;27H[?25h[?25le[58;197H1-28[11;28H[?25h[?25ls[58;197H2-29[11;29H[?25h[?25lt[58;197H3-30[11;30H[?25h[?25l;[58;197H4-31[11;31H[?25h[?25l
        [12;9H[K[58;194H2,2-9  [12;9H[?25h[?25l
        [13;9H[K[58;194H3[13;9H[?25h[?25lt[58;196H3-10[13;10H[?25h[?25le[58;196H4-11[13;11H[?25h[?25ls[58;196H5-12[13;12H[?25h[?25lt[58;196H6-13[13;13H[?25h[?25l.[58;196H7-14[13;14H[?25h[?25la[58;196H8-15[13;15H[?25h[?25l[58;196H9-16[13;16H[?25h[?25l=[58;196H10-17[13;17H[?25h[?25l[58;197H1-18[13;18H[?25h[?25l[1m[35m0[m[58;197H2-19[13;19H[?25h[?25l0x[58;197H3-20[13;20H[?25h[?25l[1m[35m0xa[m[58;197H4-21[13;21H[?25h[?25l;[58;197H5-22[13;22H[?25h[?25l
        [14;9H[K[58;194H4,2-9  [14;9H[?25h[?25lp[58;196H3-10[14;10H[?25h[?25lr[58;196H4-11[14;11H[?25h[?25li[58;196H5-12[14;12H[?25h[?25ln[58;196H6-13[14;13H[?25h[?25lt[58;196H7-14[14;14H[?25h[?25lf[58;196H8-15[14;15H[?25h[?25l([58;196H9-16[14;16H[?25h[?25l[1m[35m"[m[58;196H10-17[14;17H[?25h[?25l[1m[35mA[m[58;197H1-18[14;18H[?25h[?25l[14;17H[K[58;197H0-17[14;17H[?25h[?25l[1m[35ma[m[58;197H1-18[14;18H[?25h[?25l[1m[35m;[m[58;197H2-19[14;19H[?25h[?25l[1m[35m [m[58;197H3-20[14;20H[?25h[?25l[1m[35m%[m[58;197H4-21[14;21H[?25h[?25l[1m[31m%d[m[58;197H5-22[14;22H[?25h[?25l[1m[31m\[m[58;197H6-23[14;23H[?25h[?25l[1m[31mn[m[58;197H7-24[14;24H[?25h[?25l[1m[35m"[m[58;197H8-25[14;25H[?25h[?25l,[58;197H9-26[14;26H[?25h[?25l[58;196H20-27[14;27H[?25h[?25lt[58;197H1-28[14;28H[?25h[?25le[58;197H2-29[14;29H[?25h[?25ls[58;197H3-30[14;30H[?25h[?25lt[58;197H4-31[14;31H[?25h[?25l.[58;197H5-32[14;32H[?25h[?25la[58;197H6-33[14;33H[?25h[?25l)[14;15H[46m([17C)[m[58;197H7-34[14;34H[?25h[?25l;[14;15H([17C)[58;197H8-35[14;35H[?25h[?25l
        [15;9H[K[58;194H5,2-9  [15;9H[?25h[?25l
        [16;9H[K[58;194H6[16;9H[?25h[?25l[8Ctest.a = [1m[35m0xa[m;
        printf([1m[35m"a; [m[1m[31m%d\n[m[1m[35m"[m, test.a);[17;35H[K[18;1H[K[18;1H[?25h[?25l~[19;1H[K[58;194H9,1  [19;1H[?25h[?25l[8Ctest.a = [1m[35m0xa[m;
        printf([1m[35m"a; [m[1m[31m%d\n[m[1m[35m"[m, test.a);[20;35H[K[21;1H~[21;2H[K[22;1H[K[22;1H[?25h[?25l[58;193H22[22;1H[?25h[?25l[8Ctest.a = [1m[35m0xa[m;
        printf([1m[35m"a; [m[1m[31m%d\n[m[1m[35m"[m, test.a);[23;35H[K[23;35H[?25h[?25l[24;1H[K[24;1H[?25h[?25l~[25;1H[K[58;194H5[25;1H[?25h[?25l[58;196H2-9[25;9H[?25h[?25lr[58;196H3-10[25;10H[?25h[?25le[58;196H4-11[25;11H[?25h[?25lt[58;196H5-12[25;12H[?25h[?25lu[58;196H6-13[25;13H[?25h[?25lr[58;196H7-14[25;14H[?25h[?25l[1m[33mreturn[m[58;196H8-15[25;15H[?25h[?25l[58;196H9-16[25;16H[?25h[?25l[1m[35m0[m[58;196H10-17[25;17H[?25h[?25l;[58;197H1-18[25;18H[?25h[?25l[26;1H[K[58;194H6,1    [26;1H[?25h[?25l}[10;16H[46m{[26;1H}[m[58;196H2[26;2H[?25h[?25l[10;16H{[26;1H}[58;194H5,1[25;1H[?25h[?25l[58;194H4,2[24;2H[?25h[?25l[58;194H3[23;2H[?25h[?25l[58;194H2[22;2H[?25h[?25l[58;194H1[21;2H[?25h[?25l[58;194H0[20;2H[?25h[?25l[58;193H19[19;2H[?25h[?25l[58;194H8[18;2H[?25h[?25l[58;194H7[17;2H[?25h[?25l[58;194H6,1[16;1H[?25h[?25l[58;194H5[15;1H[?25h[?25l[58;194H4[14;1H[?25h[?25l[58;194H3[13;1H[?25h[?25l[58;194H2[12;1H[?25h[?25l[58;194H1[11;1H[?25h[?25l[58;194H2[12;1H[?25h[?25l[58;194H3[13;1H[?25h[?25l[58;194H4[14;1H[?25h[?25l[58;194H5[15;1H[?25h[?25l[58;194H6[16;1H[?25h[?25l[58;194H7,2[17;2H[?25h[?25l[58;194H8[18;2H[?25h[?25l[58;194H9[19;2H[?25h[?25l[58;194H8[18;2H[?25h[?25l[18;1H[K[58;196H1[18;1H[?25h[?25l[58;194H9[19;1H[?25h[?25l[58;193H20[20;1H[?25h[?25l[58;194H1[21;1H[?25h[?25l[58;196H2[21;2H[?25h[?25l[21;1H[K[58;196H1[21;1H[?25h[?25l[58;194H2[22;1H[?25h[?25l[58;194H3[23;1H[?25h[?25l[58;194H4[24;1H[?25h[?25l[58;194H5[25;1H[?25h[?25l[58;196H2-9[25;9H[?25h[?25l[58;194H4,2  [24;2H[?25h[?25l[24;1H[K[58;196H1[24;1H[?25h[?25l[58;194H3[23;1H[?25h[?25l[58;194H2[22;1H[?25h[?25l[58;194H1[21;1H[?25h[?25l[58;194H0[20;1H[?25h[?25l[58;193H19[19;1H[?25h[?25l[58;194H8[18;1H[?25h[?25l[58;194H7[17;1H[?25h[?25l[58;194H6[16;1H[?25h[?25l[58;194H5[15;1H[?25h[?25l[58;194H6[16;1H[?25h[?25l[16C        test.a = [1m[35m0xa[m;[58;196H2-9[16;9H[?25h[?25l[16C        test.a = [1m[35m0xa[m;[58;196H3-17[16;17H[?25h[?25l[58;196H4-25[16;25H[?25h[?25l[58;196H5-26[16;26H[?25h[?25l[58;196H6-27[16;27H[?25h[?25l[58;196H7-28[16;28H[?25h[?25l[58;196H8-29[16;29H[?25h[?25l[58;196H9-30[16;30H[?25h[?25l[58;196H10-31[16;31H[?25h[?25l[58;197H1-32[16;32H[?25h[?25l[58;197H2-33[16;33H[?25h[?25ltest.a = [1m[35m0xa[m;[16;45H[K[58;197H1-32[16;32H[?25h[?25ltest.a = [1m[35m0xa[m;[16;44H[K[58;197H0-31[16;31H[?25h[?25ltest.a = [1m[35m0xa[m;[16;43H[K[58;196H9-30 [16;30H[?25h[?25ltest.a = [1m[35m0xa[m;[16;42H[K[58;196H8-29[16;29H[?25h[?25ltest.a = [1m[35m0xa[m;[16;41H[K[58;196H7-28[16;28H[?25h[?25ltest.a = [1m[35m0xa[m;[16;40H[K[58;196H6-27[16;27H[?25h[?25ltest.a = [1m[35m0xa[m;[16;39H[K[58;196H5-26[16;26H[?25h[?25ltest.a = [1m[35m0xa[m;[16;38H[K[58;196H4-25[16;25H[?25h[?25l[16;17Htest.a = [1m[35m0xa[m;[16;30H[K[58;196H3-17[16;17H[?25h[?25l[16;9Htest.a = [1m[35m0xa[m;[16;22H[K[58;196H2-9 [16;9H[?25h[?25ltest.a = [1m[35m0xa[m;[16;14H[K[58;196H1  [16;1H[?25h[?25l        test.a = [1m[35m0xa[m;[58;196H2-9[16;9H[?25h[?25l[58;196H3-10[16;10H[?25h[?25l[58;196H4-11[16;11H[?25h[?25l[58;196H5-12[16;12H[?25h[?25l[58;196H6-13[16;13H[?25h[?25l[58;196H7-14[16;14H[?25h[?25l[58;196H8-15[16;15H[?25h[?25l = [1m[35m0xa[m;[16;21H[K[58;196H7-14[16;14H[?25h[?25lb = [1m[35m0xa[m;[58;196H8-15[16;15H[?25h[?25l[17;15H[46m([17C)[m[58;194H7,15  [17;15H[?25h[?25l([17C)[58;194H8,1 [18;1H[?25h[?25l[58;194H9,15[19;15H[?25h[?25l = [1m[35m0xa[m;[19;21H[K[58;197H4[19;14H[?25h[?25lc = [1m[35m0xa[m;[58;197H5[19;15H[?25h[?25l[20;15H[46m([17C)[m[58;193H20[20;15H[?25h[?25l([17C)[58;194H1,1 [21;1H[?25h[?25l[58;194H2,15[22;15H[?25h[?25l = [1m[35m0xa[m;[22;21H[K[58;197H4[22;14H[?25h[?25ld = [1m[35m0xa[m;[58;197H5[22;15H[?25h[?25l[58;194H1,1 [21;1H[?25h[?25l[20;15H[46m([17C)[m[58;194H0,15[20;15H[?25h[?25l([17C)[58;193H19[19;15H[?25h[?25l[58;194H8,1 [18;1H[?25h[?25l[17;15H[46m([17C)[m[58;194H7,15[17;15H[?25h[?25l[58;197H6[17;16H[?25h[?25l([17C)[58;197H7[17;17H[?25h[?25l[58;194H6,10-17[16;17H[?25h[?25l[58;194H5,1    [15;1H[?25h[?25l[58;194H4,10-17[14;17H[?25h[?25l[58;197H1-18[14;18H[?25h[?25l[58;194H5,1    [15;1H[?25h[?25l[58;194H6,11-18[16;18H[?25h[?25l[58;194H7,18   [17;18H[?25h[?25l[1m[35m; [m[1m[31m%d\n[m[1m[35m"[m, test.a);[17;34H[K[58;197H7[17;17H[?25h[?25l[1m[35mb; [m[1m[31m%d\n[m[1m[35m"[m, test.a);[58;197H8[17;18H[?25h[?25l[58;197H9[17;19H[?25h[?25l[1m[35m [m[1m[31m%d\n[m[1m[35m"[m, test.a);[17;34H[K[58;197H8[17;18H[?25h[?25l[1m[35m: [m[1m[31m%d\n[m[1m[35m"[m, test.a);[58;197H9[17;19H[?25h[?25l[58;196H20[17;20H[?25h[?25l[58;197H1[17;21H[?25h[?25l[58;197H2[17;22H[?25h[?25l[58;197H3[17;23H[?25h[?25l[58;197H4[17;24H[?25h[?25l[58;197H5[17;25H[?25h[?25l[58;197H6[17;26H[?25h[?25l[58;197H7[17;27H[?25h[?25l[58;197H8[17;28H[?25h[?25l[58;197H9[17;29H[?25h[?25l[58;196H30[17;30H[?25h[?25l[58;197H1[17;31H[?25h[?25l[58;197H2[17;32H[?25h[?25l[17;15H[46m([17C)[m[58;197H3[17;33H[?25h[?25l)[46m;[m[17;34H[K[17;32H[46m)[m;[58;197H2[17;32H[?25h[?25l[46mb[m);b[46m)[m[58;197H3[17;33H[?25h[?25l[17;15H([17C)[58;194H8,1 [18;1H[?25h[?25l[58;194H9,22[19;22H[?25h[?25l[20;15H[46m([17C)[m[58;193H20,33[20;33H[?25h[?25l[20;15H([17C)[58;197H2[20;32H[?25h[?25l[58;197H1[20;31H[?25h[?25l[58;197H0[20;30H[?25h[?25l[58;196H29[20;29H[?25h[?25l[58;197H8[20;28H[?25h[?25l[58;197H7[20;27H[?25h[?25l[58;197H6[20;26H[?25h[?25l[58;197H5[20;25H[?25h[?25l[58;197H4[20;24H[?25h[?25l[58;197H3[20;23H[?25h[?25l[58;197H2[20;22H[?25h[?25l[58;197H1[20;21H[?25h[?25l[58;197H0[20;20H[?25h[?25l[58;196H19[20;19H[?25h[?25l[58;197H8[20;18H[?25h[?25l[58;197H9[20;19H[?25h[?25l[1m[35m [m[1m[31m%d\n[m[1m[35m"[m, test.a);[20;34H[K[58;197H8[20;18H[?25h[?25l[1m[35m [m[1m[31m%d\n[m[1m[35m"[m, test.a);[20;33H[K[58;197H7[20;17H[?25h[?25l[1m[35mc [m[1m[31m%d\n[m[1m[35m"[m, test.a);[58;197H8[20;18H[?25h[?25l[1m[35m: [m[1m[31m%d\n[m[1m[35m"[m, test.a);[58;197H9[20;19H[?25h[?25l[58;196H20[20;20H[?25h[?25l[58;197H1[20;21H[?25h[?25l[58;197H2[20;22H[?25h[?25l[58;197H3[20;23H[?25h[?25l[58;197H4[20;24H[?25h[?25l[58;197H5[20;25H[?25h[?25l[58;197H6[20;26H[?25h[?25l[58;197H7[20;27H[?25h[?25l[58;197H8[20;28H[?25h[?25l[58;197H9[20;29H[?25h[?25l[58;196H30[20;30H[?25h[?25l[58;197H1[20;31H[?25h[?25l[58;197H2[20;32H[?25h[?25l[20;15H[46m([17C)[m[58;197H3[20;33H[?25h[?25l)[46m;[m[20;34H[K[20;32H[46m)[m;[58;197H2[20;32H[?25h[?25l[46mc[m);c[46m)[m[58;197H3[20;33H[?25h[?25l[20;15H([17C)[58;194H1,1 [21;1H[?25h[?25l[58;194H2,22[22;22H[?25h[?25l[23;15H[46m([17C)[m[58;194H3,33[23;33H[?25h[?25l[23;15H([17C)[58;197H2[23;32H[?25h[?25l[58;197H1[23;31H[?25h[?25l[58;197H0[23;30H[?25h[?25l[58;196H29[23;29H[?25h[?25l[58;197H8[23;28H[?25h[?25l[58;197H7[23;27H[?25h[?25l[58;197H6[23;26H[?25h[?25l[58;197H5[23;25H[?25h[?25l[58;197H4[23;24H[?25h[?25l[58;197H3[23;23H[?25h[?25l[58;197H2[23;22H[?25h[?25l[58;197H1[23;21H[?25h[?25l[58;197H0[23;20H[?25h[?25l[58;196H19[23;19H[?25h[?25l[1m[35m [m[1m[31m%d\n[m[1m[35m"[m, test.a);[23;34H[K[58;197H8[23;18H[?25h[?25l[1m[35m [m[1m[31m%d\n[m[1m[35m"[m, test.a);[23;33H[K[58;197H7[23;17H[?25h[?25l[1m[35md [m[1m[31m%d\n[m[1m[35m"[m, test.a);[58;197H8[23;18H[?25h[?25l[1m[35m: [m[1m[31m%d\n[m[1m[35m"[m, test.a);[58;197H9[23;19H[?25h[?25l[58;196H20[23;20H[?25h[?25l[58;197H1[23;21H[?25h[?25l[58;197H2[23;22H[?25h[?25l[58;197H3[23;23H[?25h[?25l[58;197H4[23;24H[?25h[?25l[58;197H5[23;25H[?25h[?25l[58;197H6[23;26H[?25h[?25l[58;197H7[23;27H[?25h[?25l[58;197H8[23;28H[?25h[?25l[58;197H9[23;29H[?25h[?25l[58;196H30[23;30H[?25h[?25l[58;197H1[23;31H[?25h[?25l[58;197H2[23;32H[?25h[?25l[23;15H[46m([17C)[m[58;197H3[23;33H[?25h[?25l)[46m;[m[23;34H[K[23;32H[46m)[m;[58;197H2[23;32H[?25h[?25l[46md[m);d[46m)[m[58;197H3[23;33H[?25h[?25l[23;15H([17C)[58;194H2,22[22;22H[?25h[?25l[58;194H1,1 [21;1H[?25h[?25l[20;15H[46m([17C)[m[58;194H0,33[20;33H[?25h[?25l[20;15H([17C)[58;193H19,22[19;22H[?25h[?25l[58;194H8,1 [18;1H[?25h[?25l[17;15H[46m([17C)[m[58;194H7,33[17;33H[?25h[?25l[17;15H([17C)[58;194H6,15-22[16;22H[?25h[?25l[58;197H4-21[16;21H[?25h[?25l[58;197H3-20[16;20H[?25h[?25l[58;197H4-21[16;21H[?25h[?25l0x;[16;21H[K[58;197H3-20[16;20H[?25h[?25l[1m[35m0xb[m;[58;197H4-21[16;21H[?25h[?25l[58;194H7,21   [17;21H[?25h[?25l[58;194H8,1 [18;1H[?25h[?25l[58;194H9,21[19;21H[?25h[?25l0x;[19;21H[K[58;197H0[19;20H[?25h[?25l[1m[35m0xc[m;[58;197H1[19;21H[?25h[?25l[58;193H20[20;21H[?25h[?25l[58;194H1,1 [21;1H[?25h[?25l[58;194H2,21[22;21H[?25h[?25l0x;[22;21H[K[58;197H0[22;20H[?25h[?25l[1m[35m0[m;[22;20H[K[58;196H19[22;19H[?25h[?25l;[22;19H[K[58;197H8[22;18H[?25h[?25l&;[58;197H9[22;19H[?25h[?25lt;[58;196H20[22;20H[?25h[?25le;[58;197H1[22;21H[?25h[?25ls;[58;197H2[22;22H[?25h[?25lt;[58;197H3[22;23H[?25h[?25l[58;194H3[23;23H[?25h[?25l[58;197H2[23;22H[?25h[?25l[1m[35m%[m[1m[31m\n[m[1m[35m"[m, test.d);[23;34H[K[58;197H1[23;21H[?25h[?25l[1m[31m%p\n[m[1m[35m"[m, test.d);[58;197H2[23;22H[?25h[58;1H[K[23;21H[?25l[58;183H^[[23;21H[58;183H  [23;22H[58;193H23,21[9CAll[23;21H[?25h[?25l[58;183H:[23;21H[58;183H[K[58;1H:[?25hwq[?25l[?2004l[>4;m"test3.c" [New] 26L, 346B written[23;2t[23;1t
[?1004l[?2004l[?1l>[?25h[>4;m[?1049l[23;0;0t[?2004h]0;chaehoon@chaehoon: ~/Projects/labs/lab8chaehoon@chaehoon:~/Projects/labs/lab8$ gcc -c -g test3.c -o test
[?2004l[01m[Ktest3.c:10:1:[m[K [01;31m[Kerror: [m[Kexpected ‘[01m[K;[m[K’, identifier or ‘[01m[K([m[K’ before ‘[01m[Kint[m[K’
   10 | [01;31m[Kint[m[K main(void) {
      | [01;31m[K^~~[m[K
[01m[Ktest3.c:[m[K In function ‘[01m[Kmain[m[K’:
[01m[Ktest3.c:11:26:[m[K [01;31m[Kerror: [m[Kstorage size of ‘[01m[Ktest[m[K’ isn’t known
   11 |         struct my_struct [01;31m[Ktest[m[K;
      |                          [01;31m[K^~~~[m[K
[?2004h]0;chaehoon@chaehoon: ~/Projects/labs/lab8chaehoon@chaehoon:~/Projects/labs/lab8$ gcc -c -g test3.c -o test[15Pvi test3.c
[?2004l[?1049h[22;0;0t[>4;2m[?1h=[?2004h[?1004h[1;58r[?12h[?12l[22;2t[22;1t[27m[23m[29m[m[H[2J[?25l[58;1H"test3.c" 26L, 346B[2;1H▽[6n[2;1H  [3;1HPzz\[0%m[6n[3;1H           [1;1H[>c]10;?]11;?[1;1H[35m#include [m[31m<stdio.h>[m[2;1H[K[3;1H[32mstruct[m my_strut {[3;18H[K[4;9H[32mchar[m a;[5;9H[32mshort[m b;[6;9H[32mint[m c;[7;9H[32mvoid[m* d;
}

[32mint[m main([32mvoid[m) {[11;9H[32mstruct[m my_struct test;[13;9Htest.a = [31m0xa[m;[14;9Hprintf([31m"a; [m[35m%d\n[m[31m"[m, test.a);[16;9Htest.b = [31m0xb[m;[17;9Hprintf([31m"b: [m[35m%d\n[m[31m"[m, test.b);[19;9Htest.c = [31m0xc[m;[20;9Hprintf([31m"c: [m[35m%d\n[m[31m"[m, test.c);[22;9Htest.d = &test;[23;9Hprintf([31m"d: [m[35m%p\n[m[31m"[m, test.d);[25;9H[33mreturn[m [31m0[m;
}
[1m[34m~                                                                                                                                                                                                                 [28;1H~                                                                                                                                                                                                                 [29;1H~                                                                                                                                                                                                                 [30;1H~                                                                                                                                                                                                                 [31;1H~                                                                                                                                                                                                                 [32;1H~                                                                                                                                                                                                                 [33;1H~                                                                                                                                                                                                                 [34;1H~                                                                                                                                                                                                                 [35;1H~                                                                                                                                                                                                                 [36;1H~                                                                                                                                                                                                                 [37;1H~                                                                                                                                                                                                                 [38;1H~                                                                                                                                                                                                                 [39;1H~                                                                                                                                                                                                                 [40;1H~                                                                                                                                                                                                                 [41;1H~                                                                                                                                                                                                                 [42;1H~                                                                                                                                                                                                                 [43;1H~                                                                                                                                                                                                                 [44;1H~                                                                                                                                                                                                                 [45;1H~                                                                                                                                                                                                                 [46;1H~                                                                                                                                                                                                                 [47;1H~                                                                                                                                                                                                                 [48;1H~                                                                                                                                                                                                                 [49;1H~                                                                                                                                                                                                                 [50;1H~                                                                                                                                                                                                                 [51;1H~                                                                                                                                                                                                                 [52;1H~                                                                                                                                                                                                                 [53;1H~                                                                                                                                                                                                                 [54;1H~                                                                                                                                                                                                                 [55;1H~                                                                                                                                                                                                                 [56;1H~                                                                                                                                                                                                                 [57;1H~                                                                                                                                                                                                                 [m[58;193H23,21[9CAll[23;21H[?25h[?12$p[?25l[58;183H0[23;21H[58;184H0[23;21H[58;185H0[23;21H[58;186H/[23;21H[58;187H0[23;21H[58;188H0[23;21H[58;189H0[23;21H[58;190H0[23;21H[58;191H/[23;21H[58;192H0[23;21H[58;183H          [23;21H[27m[23m[29m[m[H[2J[1;1H[1m[34m#include [m[1m[35m<stdio.h>[m

[1m[32mstruct[m my_strut {[4;9H[1m[32mchar[m a;[5;9H[1m[32mshort[m b;[6;9H[1m[32mint[m c;[7;9H[1m[32mvoid[m* d;
}

[1m[32mint[m main([1m[32mvoid[m) {[11;9H[1m[32mstruct[m my_struct test;[13;9Htest.a = [1m[35m0xa[m;[14;9Hprintf([1m[35m"a; [m[1m[31m%d\n[m[1m[35m"[m, test.a);[16;9Htest.b = [1m[35m0xb[m;[17;9Hprintf([1m[35m"b: [m[1m[31m%d\n[m[1m[35m"[m, test.b);[19;9Htest.c = [1m[35m0xc[m;[20;9Hprintf([1m[35m"c: [m[1m[31m%d\n[m[1m[35m"[m, test.c);[22;9Htest.d = &test;[23;9Hprintf([1m[35m"d: [m[1m[31m%p\n[m[1m[35m"[m, test.d);[25;9H[1m[33mreturn[m [1m[35m0[m;
}
[1m[34m~                                                                                                                                                                                                                 [28;1H~                                                                                                                                                                                                                 [29;1H~                                                                                                                                                                                                                 [30;1H~                                                                                                                                                                                                                 [31;1H~                                                                                                                                                                                                                 [32;1H~                                                                                                                                                                                                                 [33;1H~                                                                                                                                                                                                                 [34;1H~                                                                                                                                                                                                                 [35;1H~                                                                                                                                                                                                                 [36;1H~                                                                                                                                                                                                                 [37;1H~                                                                                                                                                                                                                 [38;1H~                                                                                                                                                                                                                 [39;1H~                                                                                                                                                                                                                 [40;1H~                                                                                                                                                                                                                 [41;1H~                                                                                                                                                                                                                 [42;1H~                                                                                                                                                                                                                 [43;1H~                                                                                                                                                                                                                 [44;1H~                                                                                                                                                                                                                 [45;1H~                                                                                                                                                                                                                 [46;1H~                                                                                                                                                                                                                 [47;1H~                                                                                                                                                                                                                 [48;1H~                                                                                                                                                                                                                 [49;1H~                                                                                                                                                                                                                 [50;1H~                                                                                                                                                                                                                 [51;1H~                                                                                                                                                                                                                 [52;1H~                                                                                                                                                                                                                 [53;1H~                                                                                                                                                                                                                 [54;1H~                                                                                                                                                                                                                 [55;1H~                                                                                                                                                                                                                 [56;1H~                                                                                                                                                                                                                 [57;1H~                                                                                                                                                                                                                 [m[58;193H23,21[9CAll"test3.c" 26L, 346B[23;21H[?25h[?25l[58;183Hi[23;21H[58;183H [23;21H[58;1H[1m-- INSERT --[m[58;13H[K[58;193H23,21[9CAll[23;21H[?25h[?25l[58;194H2[22;21H[?25h[?25l[58;194H1,1 [21;1H[?25h[?25l[58;194H0,21[20;21H[?25h[?25l[58;193H19[19;21H[?25h[?25l[58;194H8,1 [18;1H[?25h[?25l[58;194H7,21[17;21H[?25h[?25l[58;194H6,14-21[16;21H[?25h[?25l[58;194H5,1    [15;1H[?25h[?25l[58;194H4,14-21[14;21H[?25h[?25l[58;194H3[13;21H[?25h[?25l[58;194H2,1    [12;1H[?25h[58;1H[K[12;1H[?25l[58;183H^[[12;1H[58;183H  [12;1H[58;193H12,0-1[8CAll[12;1H[?25h[?25l[58;183H:[12;1H[58;183H[K[58;1H:[?25hwq[?25l[?2004l[>4;m"test3.c" 26L, 346B written[23;2t[23;1t
[?1004l[?2004l[?1l>[?25h[>4;m[?1049l[23;0;0t[?2004h]0;chaehoon@chaehoon: ~/Projects/labs/lab8chaehoon@chaehoon:~/Projects/labs/lab8$ vi test3.cgcc -c -g test3.c -o test[15Pvi test3.c
[?2004l[?1049h[22;0;0t[>4;2m[?1h=[?2004h[?1004h[1;58r[?12h[?12l[22;2t[22;1t[27m[23m[29m[m[H[2J[?25l[58;1H"test3.c" 26L, 346B[2;1H▽[6n[2;1H  [3;1HPzz\[0%m[6n[3;1H           [1;1H[>c]10;?]11;?[1;1H[35m#include [m[31m<stdio.h>[m[2;1H[K[3;1H[32mstruct[m my_strut {[3;18H[K[4;9H[32mchar[m a;[5;9H[32mshort[m b;[6;9H[32mint[m c;[7;9H[32mvoid[m* d;
}

[32mint[m main([32mvoid[m) {[11;9H[32mstruct[m my_struct test;[13;9Htest.a = [31m0xa[m;[14;9Hprintf([31m"a; [m[35m%d\n[m[31m"[m, test.a);[16;9Htest.b = [31m0xb[m;[17;9Hprintf([31m"b: [m[35m%d\n[m[31m"[m, test.b);[19;9Htest.c = [31m0xc[m;[20;9Hprintf([31m"c: [m[35m%d\n[m[31m"[m, test.c);[22;9Htest.d = &test;[23;9Hprintf([31m"d: [m[35m%p\n[m[31m"[m, test.d);[25;9H[33mreturn[m [31m0[m;
}
[1m[34m~                                                                                                                                                                                                                 [28;1H~                                                                                                                                                                                                                 [29;1H~                                                                                                                                                                                                                 [30;1H~                                                                                                                                                                                                                 [31;1H~                                                                                                                                                                                                                 [32;1H~                                                                                                                                                                                                                 [33;1H~                                                                                                                                                                                                                 [34;1H~                                                                                                                                                                                                                 [35;1H~                                                                                                                                                                                                                 [36;1H~                                                                                                                                                                                                                 [37;1H~                                                                                                                                                                                                                 [38;1H~                                                                                                                                                                                                                 [39;1H~                                                                                                                                                                                                                 [40;1H~                                                                                                                                                                                                                 [41;1H~                                                                                                                                                                                                                 [42;1H~                                                                                                                                                                                                                 [43;1H~                                                                                                                                                                                                                 [44;1H~                                                                                                                                                                                                                 [45;1H~                                                                                                                                                                                                                 [46;1H~                                                                                                                                                                                                                 [47;1H~                                                                                                                                                                                                                 [48;1H~                                                                                                                                                                                                                 [49;1H~                                                                                                                                                                                                                 [50;1H~                                                                                                                                                                                                                 [51;1H~                                                                                                                                                                                                                 [52;1H~                                                                                                                                                                                                                 [53;1H~                                                                                                                                                                                                                 [54;1H~                                                                                                                                                                                                                 [55;1H~                                                                                                                                                                                                                 [56;1H~                                                                                                                                                                                                                 [57;1H~                                                                                                                                                                                                                 [m[58;193H12,0-1[8CAll[12;1H[?25h[?12$p[?25l[58;183H0[12;1H[58;184H0[12;1H[58;185H0[12;1H[58;186H/[12;1H[58;187H0[12;1H[58;188H0[12;1H[58;189H0[12;1H[58;190H0[12;1H[58;191H/[12;1H[58;192H0[12;1H[58;183H          [12;1H[27m[23m[29m[m[H[2J[1;1H[1m[34m#include [m[1m[35m<stdio.h>[m

[1m[32mstruct[m my_strut {[4;9H[1m[32mchar[m a;[5;9H[1m[32mshort[m b;[6;9H[1m[32mint[m c;[7;9H[1m[32mvoid[m* d;
}

[1m[32mint[m main([1m[32mvoid[m) {[11;9H[1m[32mstruct[m my_struct test;[13;9Htest.a = [1m[35m0xa[m;[14;9Hprintf([1m[35m"a; [m[1m[31m%d\n[m[1m[35m"[m, test.a);[16;9Htest.b = [1m[35m0xb[m;[17;9Hprintf([1m[35m"b: [m[1m[31m%d\n[m[1m[35m"[m, test.b);[19;9Htest.c = [1m[35m0xc[m;[20;9Hprintf([1m[35m"c: [m[1m[31m%d\n[m[1m[35m"[m, test.c);[22;9Htest.d = &test;[23;9Hprintf([1m[35m"d: [m[1m[31m%p\n[m[1m[35m"[m, test.d);[25;9H[1m[33mreturn[m [1m[35m0[m;
}
[1m[34m~                                                                                                                                                                                                                 [28;1H~                                                                                                                                                                                                                 [29;1H~                                                                                                                                                                                                                 [30;1H~                                                                                                                                                                                                                 [31;1H~                                                                                                                                                                                                                 [32;1H~                                                                                                                                                                                                                 [33;1H~                                                                                                                                                                                                                 [34;1H~                                                                                                                                                                                                                 [35;1H~                                                                                                                                                                                                                 [36;1H~                                                                                                                                                                                                                 [37;1H~                                                                                                                                                                                                                 [38;1H~                                                                                                                                                                                                                 [39;1H~                                                                                                                                                                                                                 [40;1H~                                                                                                                                                                                                                 [41;1H~                                                                                                                                                                                                                 [42;1H~                                                                                                                                                                                                                 [43;1H~                                                                                                                                                                                                                 [44;1H~                                                                                                                                                                                                                 [45;1H~                                                                                                                                                                                                                 [46;1H~                                                                                                                                                                                                                 [47;1H~                                                                                                                                                                                                                 [48;1H~                                                                                                                                                                                                                 [49;1H~                                                                                                                                                                                                                 [50;1H~                                                                                                                                                                                                                 [51;1H~                                                                                                                                                                                                                 [52;1H~                                                                                                                                                                                                                 [53;1H~                                                                                                                                                                                                                 [54;1H~                                                                                                                                                                                                                 [55;1H~                                                                                                                                                                                                                 [56;1H~                                                                                                                                                                                                                 [57;1H~                                                                                                                                                                                                                 [m[58;193H12,0-1[8CAll"test3.c" 26L, 346B[12;1H[?25h[?25l[58;183Hi[12;1H[58;183H [12;1H[58;1H[1m-- INSERT --[m[58;13H[K[58;193H12,1[10CAll[12;1H[?25h[?25l[58;194H1[11;1H[?25h[?25l[58;194H0[10;1H[?25h[?25l[58;193H9,1 [9;1H[?25h[?25l[3;17H[46m{[8;1H}[m[58;193H8[8;1H[?25h[?25l[58;195H2[8;2H[?25h[?25l;[3;17H{[8;1H}[58;195H3[8;3H[?25h[58;1H[K[8;2H[?25l[58;183H^[[8;2H[58;183H  [8;3H[58;193H8,2[11CAll[8;2H[?25h[?25l[58;183H:[8;2H[58;183H[K[58;1H:[?25hwq[?25l[?2004l[>4;m"test3.c" 26L, 347B written[23;2t[23;1t
[?1004l[?2004l[?1l>[?25h[>4;m[?1049l[23;0;0t[?2004h]0;chaehoon@chaehoon: ~/Projects/labs/lab8chaehoon@chaehoon:~/Projects/labs/lab8$ vi test3.cgcc -c -g test3.c -o test
[?2004l[01m[Ktest3.c:[m[K In function ‘[01m[Kmain[m[K’:
[01m[Ktest3.c:11:26:[m[K [01;31m[Kerror: [m[Kstorage size of ‘[01m[Ktest[m[K’ isn’t known
   11 |         struct my_struct [01;31m[Ktest[m[K;
      |                          [01;31m[K^~~~[m[K
[?2004h]0;chaehoon@chaehoon: ~/Projects/labs/lab8chaehoon@chaehoon:~/Projects/labs/lab8$ gcc -c -g test3.c -o test[15Pvi test3.c
[?2004l[?1049h[22;0;0t[>4;2m[?1h=[?2004h[?1004h[1;58r[?12h[?12l[22;2t[22;1t[27m[23m[29m[m[H[2J[?25l[58;1H"test3.c" 26L, 347B[2;1H▽[6n[2;1H  [3;1HPzz\[0%m[6n[3;1H           [1;1H[>c]10;?]11;?[1;1H[35m#include [m[31m<stdio.h>[m[2;1H[K[3;1H[32mstruct[m my_strut {[3;18H[K[4;9H[32mchar[m a;[5;9H[32mshort[m b;[6;9H[32mint[m c;[7;9H[32mvoid[m* d;
};

[32mint[m main([32mvoid[m) {[11;9H[32mstruct[m my_struct test;[13;9Htest.a = [31m0xa[m;[14;9Hprintf([31m"a; [m[35m%d\n[m[31m"[m, test.a);[16;9Htest.b = [31m0xb[m;[17;9Hprintf([31m"b: [m[35m%d\n[m[31m"[m, test.b);[19;9Htest.c = [31m0xc[m;[20;9Hprintf([31m"c: [m[35m%d\n[m[31m"[m, test.c);[22;9Htest.d = &test;[23;9Hprintf([31m"d: [m[35m%p\n[m[31m"[m, test.d);[25;9H[33mreturn[m [31m0[m;
}
[1m[34m~                                                                                                                                                                                                                 [28;1H~                                                                                                                                                                                                                 [29;1H~                                                                                                                                                                                                                 [30;1H~                                                                                                                                                                                                                 [31;1H~                                                                                                                                                                                                                 [32;1H~                                                                                                                                                                                                                 [33;1H~                                                                                                                                                                                                                 [34;1H~                                                                                                                                                                                                                 [35;1H~                                                                                                                                                                                                                 [36;1H~                                                                                                                                                                                                                 [37;1H~                                                                                                                                                                                                                 [38;1H~                                                                                                                                                                                                                 [39;1H~                                                                                                                                                                                                                 [40;1H~                                                                                                                                                                                                                 [41;1H~                                                                                                                                                                                                                 [42;1H~                                                                                                                                                                                                                 [43;1H~                                                                                                                                                                                                                 [44;1H~                                                                                                                                                                                                                 [45;1H~                                                                                                                                                                                                                 [46;1H~                                                                                                                                                                                                                 [47;1H~                                                                                                                                                                                                                 [48;1H~                                                                                                                                                                                                                 [49;1H~                                                                                                                                                                                                                 [50;1H~                                                                                                                                                                                                                 [51;1H~                                                                                                                                                                                                                 [52;1H~                                                                                                                                                                                                                 [53;1H~                                                                                                                                                                                                                 [54;1H~                                                                                                                                                                                                                 [55;1H~                                                                                                                                                                                                                 [56;1H~                                                                                                                                                                                                                 [57;1H~                                                                                                                                                                                                                 [m[58;193H8,2[11CAll[8;2H[?25h[?12$p[?25l[58;183H0[8;2H[58;184H0[8;2H[58;185H0[8;2H[58;186H/[8;2H[58;187H0[8;2H[58;188H0[8;2H[58;189H0[8;2H[58;190H0[8;2H[58;191H/[8;2H[58;192H0[8;2H[58;183H          [8;2H[27m[23m[29m[m[H[2J[1;1H[1m[34m#include [m[1m[35m<stdio.h>[m

[1m[32mstruct[m my_strut {[4;9H[1m[32mchar[m a;[5;9H[1m[32mshort[m b;[6;9H[1m[32mint[m c;[7;9H[1m[32mvoid[m* d;
};

[1m[32mint[m main([1m[32mvoid[m) {[11;9H[1m[32mstruct[m my_struct test;[13;9Htest.a = [1m[35m0xa[m;[14;9Hprintf([1m[35m"a; [m[1m[31m%d\n[m[1m[35m"[m, test.a);[16;9Htest.b = [1m[35m0xb[m;[17;9Hprintf([1m[35m"b: [m[1m[31m%d\n[m[1m[35m"[m, test.b);[19;9Htest.c = [1m[35m0xc[m;[20;9Hprintf([1m[35m"c: [m[1m[31m%d\n[m[1m[35m"[m, test.c);[22;9Htest.d = &test;[23;9Hprintf([1m[35m"d: [m[1m[31m%p\n[m[1m[35m"[m, test.d);[25;9H[1m[33mreturn[m [1m[35m0[m;
}
[1m[34m~                                                                                                                                                                                                                 [28;1H~                                                                                                                                                                                                                 [29;1H~                                                                                                                                                                                                                 [30;1H~                                                                                                                                                                                                                 [31;1H~                                                                                                                                                                                                                 [32;1H~                                                                                                                                                                                                                 [33;1H~                                                                                                                                                                                                                 [34;1H~                                                                                                                                                                                                                 [35;1H~                                                                                                                                                                                                                 [36;1H~                                                                                                                                                                                                                 [37;1H~                                                                                                                                                                                                                 [38;1H~                                                                                                                                                                                                                 [39;1H~                                                                                                                                                                                                                 [40;1H~                                                                                                                                                                                                                 [41;1H~                                                                                                                                                                                                                 [42;1H~                                                                                                                                                                                                                 [43;1H~                                                                                                                                                                                                                 [44;1H~                                                                                                                                                                                                                 [45;1H~                                                                                                                                                                                                                 [46;1H~                                                                                                                                                                                                                 [47;1H~                                                                                                                                                                                                                 [48;1H~                                                                                                                                                                                                                 [49;1H~                                                                                                                                                                                                                 [50;1H~                                                                                                                                                                                                                 [51;1H~                                                                                                                                                                                                                 [52;1H~                                                                                                                                                            