Script started on 2025-10-30 06:33:20+00:00 [TERM="xterm" TTY="/dev/pts/0" COLUMNS="80" LINES="24"]
[?2004h]0;chaehoon@chaehoon: ~/Projects/labs/lab10chaehoon@chaehoon:~/Projects/labs/lab10$ gcc -c test.c
[?2004l[?2004h]0;chaehoon@chaehoon: ~/Projects/labs/lab10chaehoon@chaehoon:~/Projects/labs/lab10$ gcc -c test.c[C[1P test.co test.c[C[C[C[C[C[C[C[K[K test.c
[?2004l[?2004h]0;chaehoon@chaehoon: ~/Projects/labs/lab10chaehoon@chaehoon:~/Projects/labs/lab10$ objdump test.o [C[1@-[1@d[1@ [C[C[C[C[C[C[C
[?2004l
test.o:     file format elf64-x86-64


Disassembly of section .text:

0000000000000000 <main>:
   0:	f3 0f 1e fa          	endbr64 
   4:	55                   	push   %rbp
   5:	48 89 e5             	mov    %rsp,%rbp
   8:	48 8d 05 00 00 00 00 	lea    0x0(%rip),%rax        # f <main+0xf>
   f:	48 89 c7             	mov    %rax,%rdi
  12:	e8 00 00 00 00       	call   17 <main+0x17>
  17:	b8 00 00 00 00       	mov    $0x0,%eax
  1c:	5d                   	pop    %rbp
  1d:	c3                   	ret    
[?2004h]0;chaehoon@chaehoon: ~/Projects/labs/lab10chaehoon@chaehoon:~/Projects/labs/lab10$ objdump -d test.o [1P [1P [C | [C [K[1P 
[?2004l
test:     file format elf64-x86-64


Disassembly of section .init:

0000000000001000 <_init>:
    1000:	f3 0f 1e fa          	endbr64 
    1004:	48 83 ec 08          	sub    $0x8,%rsp
    1008:	48 8b 05 d9 2f 00 00 	mov    0x2fd9(%rip),%rax        # 3fe8 <__gmon_start__@Base>
    100f:	48 85 c0             	test   %rax,%rax
    1012:	74 02                	je     1016 <_init+0x16>
    1014:	ff d0                	call   *%rax
    1016:	48 83 c4 08          	add    $0x8,%rsp
    101a:	c3                   	ret    

Disassembly of section .plt:

0000000000001020 <.plt>:
    1020:	ff 35 9a 2f 00 00    	push   0x2f9a(%rip)        # 3fc0 <_GLOBAL_OFFSET_TABLE_+0x8>
    1026:	f2 ff 25 9b 2f 00 00 	bnd jmp *0x2f9b(%rip)        # 3fc8 <_GLOBAL_OFFSET_TABLE_+0x10>
    102d:	0f 1f 00             	nopl   (%rax)
    1030:	f3 0f 1e fa          	endbr64 
    1034:	68 00 00 00 00       	push   $0x0
    1039:	f2 e9 e1 ff ff ff    	bnd jmp 1020 <_init+0x20>
    103f:	90                   	nop

Disassembly of section .plt.got:

0000000000001040 <__cxa_finalize@plt>:
    1040:	f3 0f 1e fa          	endbr64 
    1044:	f2 ff 25 ad 2f 00 00 	bnd jmp *0x2fad(%rip)        # 3ff8 <__cxa_finalize@GLIBC_2.2.5>
    104b:	0f 1f 44 00 00       	nopl   0x0(%rax,%rax,1)

Disassembly of section .plt.sec:

0000000000001050 <puts@plt>:
    1050:	f3 0f 1e fa          	endbr64 
    1054:	f2 ff 25 75 2f 00 00 	bnd jmp *0x2f75(%rip)        # 3fd0 <puts@GLIBC_2.2.5>
    105b:	0f 1f 44 00 00       	nopl   0x0(%rax,%rax,1)

Disassembly of section .text:

0000000000001060 <_start>:
    1060:	f3 0f 1e fa          	endbr64 
    1064:	31 ed                	xor    %ebp,%ebp
    1066:	49 89 d1             	mov    %rdx,%r9
    1069:	5e                   	pop    %rsi
    106a:	48 89 e2             	mov    %rsp,%rdx
    106d:	48 83 e4 f0          	and    $0xfffffffffffffff0,%rsp
    1071:	50                   	push   %rax
    1072:	54                   	push   %rsp
    1073:	45 31 c0             	xor    %r8d,%r8d
    1076:	31 c9                	xor    %ecx,%ecx
    1078:	48 8d 3d ca 00 00 00 	lea    0xca(%rip),%rdi        # 1149 <main>
    107f:	ff 15 53 2f 00 00    	call   *0x2f53(%rip)        # 3fd8 <__libc_start_main@GLIBC_2.34>
    1085:	f4                   	hlt    
    1086:	66 2e 0f 1f 84 00 00 	cs nopw 0x0(%rax,%rax,1)
    108d:	00 00 00 

0000000000001090 <deregister_tm_clones>:
    1090:	48 8d 3d 89 2f 00 00 	lea    0x2f89(%rip),%rdi        # 4020 <__TMC_END__>
    1097:	48 8d 05 82 2f 00 00 	lea    0x2f82(%rip),%rax        # 4020 <__TMC_END__>
    109e:	48 39 f8             	cmp    %rdi,%rax
    10a1:	74 15                	je     10b8 <deregister_tm_clones+0x28>
    10a3:	48 8b 05 36 2f 00 00 	mov    0x2f36(%rip),%rax        # 3fe0 <_ITM_deregisterTMCloneTable@Base>
    10aa:	48 85 c0             	test   %rax,%rax
    10ad:	74 09                	je     10b8 <deregister_tm_clones+0x28>
    10af:	ff e0                	jmp    *%rax
    10b1:	0f 1f 80 00 00 00 00 	nopl   0x0(%rax)
    10b8:	c3                   	ret    
    10b9:	0f 1f 80 00 00 00 00 	nopl   0x0(%rax)

00000000000010c0 <register_tm_clones>:
    10c0:	48 8d 3d 59 2f 00 00 	lea    0x2f59(%rip),%rdi        # 4020 <__TMC_END__>
    10c7:	48 8d 35 52 2f 00 00 	lea    0x2f52(%rip),%rsi        # 4020 <__TMC_END__>
    10ce:	48 29 fe             	sub    %rdi,%rsi
    10d1:	48 89 f0             	mov    %rsi,%rax
    10d4:	48 c1 ee 3f          	shr    $0x3f,%rsi
    10d8:	48 c1 f8 03          	sar    $0x3,%rax
    10dc:	48 01 c6             	add    %rax,%rsi
    10df:	48 d1 fe             	sar    %rsi
    10e2:	74 14                	je     10f8 <register_tm_clones+0x38>
    10e4:	48 8b 05 05 2f 00 00 	mov    0x2f05(%rip),%rax        # 3ff0 <_ITM_registerTMCloneTable@Base>
    10eb:	48 85 c0             	test   %rax,%rax
    10ee:	74 08                	je     10f8 <register_tm_clones+0x38>
    10f0:	ff e0                	jmp    *%rax
    10f2:	66 0f 1f 44 00 00    	nopw   0x0(%rax,%rax,1)
    10f8:	c3                   	ret    
    10f9:	0f 1f 80 00 00 00 00 	nopl   0x0(%rax)

0000000000001100 <__do_global_dtors_aux>:
    1100:	f3 0f 1e fa          	endbr64 
    1104:	80 3d 11 2f 00 00 00 	cmpb   $0x0,0x2f11(%rip)        # 401c <completed.0>
    110b:	75 2b                	jne    1138 <__do_global_dtors_aux+0x38>
    110d:	55                   	push   %rbp
    110e:	48 83 3d e2 2e 00 00 	cmpq   $0x0,0x2ee2(%rip)        # 3ff8 <__cxa_finalize@GLIBC_2.2.5>
    1115:	00 
    1116:	48 89 e5             	mov    %rsp,%rbp
    1119:	74 0c                	je     1127 <__do_global_dtors_aux+0x27>
    111b:	48 8b 3d e6 2e 00 00 	mov    0x2ee6(%rip),%rdi        # 4008 <__dso_handle>
    1122:	e8 19 ff ff ff       	call   1040 <__cxa_finalize@plt>
    1127:	e8 64 ff ff ff       	call   1090 <deregister_tm_clones>
    112c:	c6 05 e9 2e 00 00 01 	movb   $0x1,0x2ee9(%rip)        # 401c <completed.0>
    1133:	5d                   	pop    %rbp
    1134:	c3                   	ret    
    1135:	0f 1f 00             	nopl   (%rax)
    1138:	c3                   	ret    
    1139:	0f 1f 80 00 00 00 00 	nopl   0x0(%rax)

0000000000001140 <frame_dummy>:
    1140:	f3 0f 1e fa          	endbr64 
    1144:	e9 77 ff ff ff       	jmp    10c0 <register_tm_clones>

0000000000001149 <main>:
    1149:	f3 0f 1e fa          	endbr64 
    114d:	55                   	push   %rbp
    114e:	48 89 e5             	mov    %rsp,%rbp
    1151:	48 8d 05 b8 2e 00 00 	lea    0x2eb8(%rip),%rax        # 4010 <msg>
    1158:	48 89 c7             	mov    %rax,%rdi
    115b:	e8 f0 fe ff ff       	call   1050 <puts@plt>
    1160:	b8 00 00 00 00       	mov    $0x0,%eax
    1165:	5d                   	pop    %rbp
    1166:	c3                   	ret    

Disassembly of section .fini:

0000000000001168 <_fini>:
    1168:	f3 0f 1e fa          	endbr64 
    116c:	48 83 ec 08          	sub    $0x8,%rsp
    1170:	48 83 c4 08          	add    $0x8,%rsp
    1174:	c3                   	ret    
[?2004h]0;chaehoon@chaehoon: ~/Projects/labs/lab10chaehoon@chaehoon:~/Projects/labs/lab10$ [K]0;chaehoon@chaehoon: ~/Projects/labs/lab10chaehoon@chaehoon:~/Projects/labs/lab10$ vi es[K[Ktest2.c
[?2004l[?1049h[22;0;0t[>4;2m[?1h=[?2004h[?1004h[1;58r[?12h[?12l[22;2t[22;1t[27m[23m[29m[m[H[2J[?25l[58;1H"test2.c" [New][2;1H▽[6n[2;1H  [3;1HPzz\[0%m[6n[3;1H           [1;1H[>c]10;?]11;?[2;1H[1m[34m~                                                                                                                                                                                                                 [3;1H~                                                                                                                                                                                                                 [4;1H~                                                                                                                                                                                                                 [5;1H~                                                                                                                                                                                                                 [6;1H~                                                                                                                                                                                                                 [7;1H~                                                                                                                                                                                                                 [8;1H~                                                                                                                                                                                                                 [9;1H~                                                                                                                                                                                                                 [10;1H~                                                                                                                                                                                                                 [11;1H~                                                                                                                                                                                                                 [12;1H~                                                                                                                                                                                                                 [13;1H~                                                                                                                                                                                                                 [14;1H~                                                                                                                                                                                                                 [15;1H~                                                                                                                                                                                                                 [16;1H~                                                                                                                                                                                                                 [17;1H~                                                                                                                                                                                                                 [18;1H~                                                                                                                                                                                                                 [19;1H~                                                                                                                                                                                                                 [20;1H~                                                                                                                                                                                                                 [21;1H~                                                                                                                                                                                                                 [22;1H~                                                                                                                                                                                                                 [23;1H~                                                                                                                                                                                                                 [24;1H~                                                                                                                                                                                                                 [25;1H~                                                                                                                                                                                                                 [26;1H~                                                                                                                                                                                                                 [27;1H~                                                                                                                                                                                                                 [28;1H~                                                                                                                                                                                                                 [29;1H~                                                                                                                                                                                                                 [30;1H~                                                                                                                                                                                                                 [31;1H~                                                                                                                                                                                                                 [32;1H~                                                                                                                                                                                                                 [33;1H~                                                                                                                                                                                                                 [34;1H~                                                                                                                                                                                                                 [35;1H~                                                                                                                                                                                                                 [36;1H~                                                                                                                                                                                                                 [37;1H~                                                                                                                                                                                                                 [38;1H~                                                                                                                                                                                                                 [39;1H~                                                                                                                                                                                                                 [40;1H~                                                                                                                                                                                                                 [41;1H~                                                                                                                                                                                                                 [42;1H~                                                                                                                                                                                                                 [43;1H~                                                                                                                                                                                                                 [44;1H~                                                                                                                                                                                                                 [45;1H~                                                                                                                                                                                                                 [46;1H~                                                                                                                                                                                                                 [47;1H~                                                                                                                                                                                                                 [48;1H~                                                                                                                                                                                                                 [49;1H~                                                                                                                                                                                                                 [50;1H~                                                                                                                                                                                                                 [51;1H~                                                                                                                                                                                                                 [52;1H~                                                                                                                                                                                                                 [53;1H~                                                                                                                                                                                                                 [54;1H~                                                                                                                                                                                                                 [55;1H~                                                                                                                                                                                                                 [56;1H~                                                                                                                                                                                                                 [57;1H~                                                                                                                                                                                                                 [m[58;193H0,0-1[9CAll[1;1H[?25h[?12$p[?25l[58;183H0[1;1H[58;184H0[1;1H[58;185H0[1;1H[58;186H/[1;1H[58;187H0[1;1H[58;188H0[1;1H[58;189H0[1;1H[58;190H0[1;1H[58;191H/[1;1H[58;192H0[1;1H[58;183H          [1;1H[27m[23m[29m[m[H[2J[2;1H[1m[34m~                                                                                                                                                                                                                 [3;1H~                                                                                                                                                                                                                 [4;1H~                                                                                                                                                                                                                 [5;1H~                                                                                                                                                                                                                 [6;1H~                                                                                                                                                                                                                 [7;1H~                                                                                                                                                                                                                 [8;1H~                                                                                                                                                                                                                 [9;1H~                                                                                                                                                                                                                 [10;1H~                                                                                                                                                                                                                 [11;1H~                                                                                                                                                                                                                 [12;1H~                                                                                                                                                                                                                 [13;1H~                                                                                                                                                                                                                 [14;1H~                                                                                                                                                                                                                 [15;1H~                                                                                                                                                                                                                 [16;1H~                                                                                                                                                                                                                 [17;1H~                                                                                                                                                                                                                 [18;1H~                                                                                                                                                                                                                 [19;1H~                                                                                                                                                                                                                 [20;1H~                                                                                                                                                                                                                 [21;1H~                                                                                                                                                                                                                 [22;1H~                                                                                                                                                                                                                 [23;1H~                                                                                                                                                                                                                 [24;1H~                                                                                                                                                                                                                 [25;1H~                                                                                                                                                                                                                 [26;1H~                                                                                                                                                                                                                 [27;1H~                                                                                                                                                                                                                 [28;1H~                                                                                                                                                                                                                 [29;1H~                                                                                                                                                                                                                 [30;1H~                                                                                                                                                                                                                 [31;1H~                                                                                                                                                                                                                 [32;1H~                                                                                                                                                                                                                 [33;1H~                                                                                                                                                                                                                 [34;1H~                                                                                                                                                                                                                 [35;1H~                                                                                                                                                                                                                 [36;1H~                                                                                                                                                                                                                 [37;1H~                                                                                                                                                                                                                 [38;1H~                                                                                                                                                                                                                 [39;1H~                                                                                                                                                                                                                 [40;1H~                                                                                                                                                                                                                 [41;1H~                                                                                                                                                                                                                 [42;1H~                                                                                                                                                                                                                 [43;1H~                                                                                                                                                                                                                 [44;1H~                                                                                                                                                                                                                 [45;1H~                                                                                                                                                                                                                 [46;1H~                                                                                                                                                                                                                 [47;1H~                                                                                                                                                                                                                 [48;1H~                                                                                                                                                                                                                 [49;1H~                                                                                                                                                                                                                 [50;1H~                                                                                                                                                                                                                 [51;1H~                                                                                                                                                                                                                 [52;1H~                                                                                                                                                                                                                 [53;1H~                                                                                                                                                                                                                 [54;1H~                                                                                                                                                                                                                 [55;1H~                                                                                                                                                                                                                 [56;1H~                                                                                                                                                                                                                 [57;1H~                                                                                                                                                                                                                 [m[58;193H0,0-1[9CAll"test2.c" [New][1;1H[?25h[?25l[58;183Hi[1;1H[58;183H [1;1H[58;1H[1m-- INSERT --[m[58;13H[K[58;193H0,1[11CAll[1;1H[?25h[?25l#[58;193H1,2[1;2H[?25h[?25li[58;195H3[1;3H[?25h[?25ln[58;195H4[1;4H[?25h[?25lc[58;195H5[1;5H[?25h[?25ll[58;195H6[1;6H[?25h[?25lu[58;195H7[1;7H[?25h[?25ld[58;195H8[1;8H[?25h[?25le[58;195H9[1;9H[?25h[?25l[58;195H10[1;10H[?25h[?25l[1m[34m#include <[m[58;196H1[1;11H[?25h[?25ls[58;196H2[1;12H[?25h[?25lt[58;196H3[1;13H[?25h[?25ld[58;196H4[1;14H[?25h[?25li[58;196H5[1;15H[?25h[?25lo[58;196H6[1;16H[?25h[?25l.[58;196H7[1;17H[?25h[?25lh[58;196H8[1;18H[?25h[?25l[1;10H[1m[35m<stdio.h>[m[58;196H9[1;19H[?25h[?25l[2;1H[K[58;193H2,1 [2;1H[?25h[?25l[3;1H[K[58;193H3[3;1H[?25h[?25lv[58;195H2[3;2H[?25h[?25lo[58;195H3[3;3H[?25h[?25li[58;195H4[3;4H[?25h[?25l[1m[32mvoid[m[58;195H5[3;5H[?25h[?25l[58;195H6[3;6H[?25h[?25lt[58;195H7[3;7H[?25h[?25le[58;195H8[3;8H[?25h[?25ls[58;195H9[3;9H[?25h[?25lt[58;195H10[3;10H[?25h[?25l([58;196H1[3;11H[?25h[?25l)[46m()[m[58;196H2[3;12H[?25h[?25l;()[58;196H3[3;13H[?25h[?25l[4;1H[K[58;193H4,1 [4;1H[?25h[?25l[5;1H[K[58;193H5[5;1H[?25h[?25lv[58;195H2[5;2H[?25h[?25lo[58;195H3[5;3H[?25h[?25ld[58;195H4[5;4H[?25h[?25li[58;195H5[5;5H[?25h[?25l=[58;195H6[5;6H[?25h[?25l=[58;195H7[5;7H[?25h[?25l=[58;195H8[5;8H[?25h[?25l=[58;195H9[5;9H[?25h[?25l[5;8H[K[58;195H8[5;8H[?25h[?25l[5;7H[K[58;195H7[5;7H[?25h[?25l[5;6H[K[58;195H6[5;6H[?25h[?25l[5;5H[K[58;195H5[5;5H[?25h[?25l[5;4H[K[58;195H4[5;4H[?25h[?25l[5;3H[K[58;195H3[5;3H[?25h[?25l[5;2H[K[58;195H2[5;2H[?25h[?25l[5;1H[K[58;195H1[5;1H[?25h[?25lc[58;195H2[5;2H[?25h[?25lh[58;195H3[5;3H[?25h[?25la[58;195H4[5;4H[?25h[?25l[1m[32mchar[m[58;195H5[5;5H[?25h[?25l[58;195H6[5;6H[?25h[?25lm[58;195H7[5;7H[?25h[?25ls[58;195H8[5;8H[?25h[?25lg[58;195H9[5;9H[?25h[?25l[[58;195H10[5;10H[?25h[?25l][46m[][m[58;196H1[5;11H[?25h[?25l[][58;196H2[5;12H[?25h[?25l=[58;196H3[5;13H[?25h[?25l[58;196H4[5;14H[?25h[?25l[1m[35m"[m[58;196H5[5;15H[?25h[?25l[1m[35mH[m[58;196H6[5;16H[?25h[?25l[1m[35me[m[58;196H7[5;17H[?25h[?25l[1m[35ml[m[58;196H8[5;18H[?25h[?25l[1m[35ml[m[58;196H9[5;19H[?25h[?25l[1m[35mo[m[58;195H20[5;20H[?25h[?25l[1m[35m [m[58;196H1[5;21H[?25h[?25l[1m[35mW[m[58;196H2[5;22H[?25h[?25l[1m[35mo[m[58;196H3[5;23H[?25h[?25l[1m[35mr[m[58;196H4[5;24H[?25h[?25l[1m[35ml[m[58;196H5[5;25H[?25h[?25l[1m[35md[m[58;196H6[5;26H[?25h[?25l[1m[35m![m[58;196H7[5;27H[?25h[?25l[1m[35m"[m[58;196H8[5;28H[?25h[?25l;[58;196H9[5;29H[?25h[?25l[6;1H[K[58;193H6,1 [6;1H[?25h[?25l[7;1H[K[58;193H7[7;1H[?25h[?25li[58;195H2[7;2H[?25h[?25ln[58;195H3[7;3H[?25h[?25l[1m[32mint[m[58;195H4[7;4H[?25h[?25l[58;195H5[7;5H[?25h[?25lm[58;195H6[7;6H[?25h[?25la[58;195H7[7;7H[?25h[?25li[58;195H8[7;8H[?25h[?25ln[58;195H9[7;9H[?25h[?25l([58;195H10[7;10H[?25h[?25lv[58;196H1[7;11H[?25h[?25lo[58;196H2[7;12H[?25h[?25li[58;196H3[7;13H[?25h[?25l[1m[32mvoid[m[58;196H4[7;14H[?25h[?25l)[46m([4C)[m[58;196H5[7;15H[?25h[?25l([4C)[58;196H6[7;16H[?25h[?25l{[58;196H7[7;17H[?25h[?25l
        [8;9H[K[58;193H8,2-9[8;9H[?25h[?25lt[58;195H3-10[8;10H[?25h[?25le[58;195H4-11[8;11H[?25h[?25ls[58;195H5-12[8;12H[?25h[?25lt[58;195H6-13[8;13H[?25h[?25l([58;195H7-14[8;14H[?25h[?25l)[46m()[m[58;195H8-15[8;15H[?25h[?25l;()[58;195H9-16[8;16H[?25h[?25l
        [9;9H[K[58;193H9,2-9 [9;9H[?25h[?25l}[7;16H[46m{

}[m[58;196H  [9;2H[?25h[58;1H[K[9;1H[?25l[58;183H^[[9;1H[58;183H  [9;2H[58;193H9,1[11CAll[9;1H[?25h[?25l[58;183H:[9;1H[58;183H[K[58;1H:[?25hwq[?25l[?2004l[>4;m"test2.c" [New] 9L, 92B written[23;2t[23;1t
[?1004l[?2004l[?1l>[?25h[>4;m[?1049l[23;0;0t[?2004h]0;chaehoon@chaehoon: ~/Projects/labs/lab10chaehoon@chaehoon:~/Projects/labs/lab10$ mv test.c practice.c
[?2004l[?2004h]0;chaehoon@chaehoon: ~/Projects/labs/lab10chaehoon@chaehoon:~/Projects/labs/lab10$ mv test.c practice.c[C[C[1@2[C[C[C[C[C[C[C[C[C[C[C[C2.c[C[C
[?2004l[?2004h]0;chaehoon@chaehoon: ~/Projects/labs/lab10chaehoon@chaehoon:~/Projects/labs/lab10$ vi test.c
[?2004l[?1049h[22;0;0t[>4;2m[?1h=[?2004h[?1004h[1;58r[?12h[?12l[22;2t[22;1t[27m[23m[29m[m[H[2J[?25l[58;1H"test.c" [New][2;1H▽[6n[2;1H  [3;1HPzz\[0%m[6n[3;1H           [1;1H[>c]10;?]11;?[2;1H[1m[34m~                                                                                                                                                                                                                 [3;1H~                                                                                                                                                                                                                 [4;1H~                                                                                                                                                                                                                 [5;1H~                                                                                                                                                                                                                 [6;1H~                                                                                                                                                                                                                 [7;1H~                                                                                                                                                                                                                 [8;1H~                                                                                                                                                                                                                 [9;1H~                                                                                                                                                                                                                 [10;1H~                                                                                                                                                                                                                 [11;1H~                                                                                                                                                                                                                 [12;1H~                                                                                                                                                                                                                 [13;1H~                                                                                                                                                                                                                 [14;1H~                                                                                                                                                                                                                 [15;1H~                                                                                                                                                                                                                 [16;1H~                                                                                                                                                                                                                 [17;1H~                                                                                                                                                                                                                 [18;1H~                                                                                                                                                                                                                 [19;1H~                                                                                                                                                                                                                 [20;1H~                                                                                                                                                                                                                 [21;1H~                                                                                                                                                                                                                 [22;1H~                                                                                                                                                                                                                 [23;1H~                                                                                                                                                                                                                 [24;1H~                                                                                                                                                                                                                 [25;1H~                                                                                                                                                                                                                 [26;1H~                                                                                                                                                                                                                 [27;1H~                                                                                                                                                                                                                 [28;1H~                                                                                                                                                                                                                 [29;1H~                                                                                                                                                                                                                 [30;1H~                                                                                                                                                                                                                 [31;1H~                                                                                                                                                                                                                 [32;1H~                                                                                                                                                                                                                 [33;1H~                                                                                                                                                                                                                 [34;1H~                                                                                                                                                                                                                 [35;1H~                                                                                                                                                                                                                 [36;1H~                                                                                                                                                                                                                 [37;1H~                                                                                                                                                                                                                 [38;1H~                                                                                                                                                                                                                 [39;1H~                                                                                                                                                                                                                 [40;1H~                                                                                                                                                                                                                 [41;1H~                                                                                                                                                                                                                 [42;1H~                                                                                                                                                                                                                 [43;1H~                                                                                                                                                                                                                 [44;1H~                                                                                                                                                                                                                 [45;1H~                                                                                                                                                                                                                 [46;1H~                                                                                                                                                                                                                 [47;1H~                                                                                                                                                                                                                 [48;1H~                                                                                                                                                                                                                 [49;1H~                                                                                                                                                                                                                 [50;1H~                                                                                                                                                                                                                 [51;1H~                                                                                                                                                                                                                 [52;1H~                                                                                                                                                                                                                 [53;1H~                                                                                                                                                                                                                 [54;1H~                                                                                                                                                                                                                 [55;1H~                                                                                                                                                                                                                 [56;1H~                                                                                                                                                                                                                 [57;1H~                                                                                                                                                                                                                 [m[58;193H0,0-1[9CAll[1;1H[?25h[?12$p[?25l[58;183H0[1;1H[58;184H0[1;1H[58;185H0[1;1H[58;186H/[1;1H[58;187H0[1;1H[58;188H0[1;1H[58;189H0[1;1H[58;190H0[1;1H[58;191H/[1;1H[58;192H0[1;1H[58;183H          [1;1H[27m[23m[29m[m[H[2J[2;1H[1m[34m~                                                                                                                                                                                                                 [3;1H~                                                                                                                                                                                                                 [4;1H~                                                                                                                                                                                                                 [5;1H~                                                                                                                                                                                                                 [6;1H~                                                                                                                                                                                                                 [7;1H~                                                                                                                                                                                                                 [8;1H~                                                                                                                                                                                                                 [9;1H~                                                                                                                                                                                                                 [10;1H~                                                                                                                                                                                                                 [11;1H~                                                                                                                                                                                                                 [12;1H~                                                                                                                                                                                                                 [13;1H~                                                                                                                                                                                                                 [14;1H~                                                                                                                                                                                                                 [15;1H~                                                                                                                                                                                                                 [16;1H~                                                                                                                                                                                                                 [17;1H~                                                                                                                                                                                                                 [18;1H~                                                                                                                                                                                                                 [19;1H~                                                                                                                                                                                                                 [20;1H~                                                                                                                                                                                                                 [21;1H~                                                                                                                                                                                                                 [22;1H~                                                                                                                                                                                                                 [23;1H~                                                                                                                                                                                                                 [24;1H~                                                                                                                                                                                                                 [25;1H~                                                                                                                                                                                                                 [26;1H~                                                                                                                                                                                                                 [27;1H~                                                                                                                                                                                                                 [28;1H~                                                                                                                                                                                                                 [29;1H~                                                                                                                                                                                                                 [30;1H~                                                                                                                                                                                                                 [31;1H~                                                                                                                                                                                                                 [32;1H~                                                                                                                                                                                                                 [33;1H~                                                                                                                                                                                                                 [34;1H~                                                                                                                                                                                                                 [35;1H~                                                                                                                                                                                                                 [36;1H~                                                                                                                                                                                                                 [37;1H~                                                                                                                                                                                                                 [38;1H~                                                                                                                                                                                                                 [39;1H~                                                                                                                                                                                                                 [40;1H~                                                                                                                                                                                                                 [41;1H~                                                                                                                                                                                                                 [42;1H~                                                                                                                                                                                                                 [43;1H~                                                                                                                                                                                                                 [44;1H~                                                                                                                                                                                                                 [45;1H~                                                                                                                                                                                                                 [46;1H~                                                                                                                                                                                                                 [47;1H~                                                                                                                                                                                                                 [48;1H~                                                                                                                                                                                                                 [49;1H~                                                                                                                                                                                                                 [50;1H~                                                                                                                                                                                                                 [51;1H~                                                                                                                                                                                                                 [52;1H~                                                                                                                                                                                                                 [53;1H~                                                                                                                                                                                                                 [54;1H~                                                                                                                                                                                                                 [55;1H~                                                                                                                                                                                                                 [56;1H~                                                                                                                                                                                                                 [57;1H~                                                                                                                                                                                                                 [m[58;193H0,0-1[9CAll"test.c" [New][1;1H[?25h[?25l[58;183Hi[1;1H[58;183H [1;1H[58;1H[1m-- INSERT --[m[58;13H[K[58;193H0,1[11CAll[1;1H[?25h[?25l[1m[34m#include [m[1m[35m<stdio.h>[m[1m[32mchar[m msg[] = [1m[35m"Hello Test"[m;[1m[32mvoid[m test([1m[32mvoid[m) [?25h[?25l{printf([1m[35m"[m[1m[31m%s\n[m[1m[35m"[m, msg);}[1;61H[46m{[20C}[m[58;193H1,83[1;83H[?25h[?25l[58;196H2[1;82H[?25h[?25l[1;61H{printf[46m([11C)[m;}[58;196H1[1;81H[?25h[?25l[58;196H0[1;80H[?25h[?25l[1;68H([11C)[58;195H79[1;79H[?25h[?25l[58;196H8[1;78H[?25h[?25l[58;196H7[1;77H[?25h[?25l[58;196H6[1;76H[?25h[?25l[58;196H5[1;75H[?25h[?25l[58;196H4[1;74H[?25h[?25l[58;196H3[1;73H[?25h[?25l[58;196H2[1;72H[?25h[?25l[58;196H1[1;71H[?25h[?25l[58;196H0[1;70H[?25h[?25l[46m([11C)[m[58;195H69[1;69H[?25h[?25l[58;196H8[1;68H[?25h[?25l([11C)[58;196H7[1;67H[?25h[?25l[58;196H6[1;66H[?25h[?25l[58;196H5[1;65H[?25h[?25l[58;196H4[1;64H[?25h[?25l[58;196H3[1;63H[?25h[?25l[46m{[20C}[m[58;196H2[1;62H[?25h[?25l[58;196H1[1;61H[?25h[?25l[1;54H[46m([4C)[m {[20C}[58;196H0[1;60H[?25h[?25l[58;195H59[1;59H[?25h[?25l([4C)[58;196H8[1;58H[?25h[?25l[58;196H7[1;57H[?25h[?25l[58;196H6[1;56H[?25h[?25l[46m([4C)[m[58;196H5[1;55H[?25h[?25l[58;196H4[1;54H[?25h[?25l([4C)[58;196H3[1;53H[?25h[?25l[58;196H2[1;52H[?25h[?25l[58;196H1[1;51H[?25h[?25l[58;196H0[1;50H[?25h[?25l[58;195H49[1;49H[?25h[?25l[58;196H8[1;48H[?25h[?25l[58;196H7[1;47H[?25h[?25l[58;196H5[1;45H[?25h[?25l[58;196H4[1;44H[?25h[?25l[58;196H3[1;43H[?25h[?25l[58;196H2[1;42H[?25h[?25l[58;196H1[1;41H[?25h[?25l[58;196H0[1;40H[?25h[?25l[58;195H39[1;39H[?25h[?25l[58;196H8[1;38H[?25h[?25l[58;196H7[1;37H[?25h[?25l[58;196H6[1;36H[?25h[?25l[58;196H5[1;35H[?25h[?25l[58;196H4[1;34H[?25h[?25l[58;196H3[1;33H[?25h[?25l[58;196H2[1;32H[?25h[?25l[58;196H1[1;31H[?25h[?25l[58;196H0[1;30H[?25h[?25l[46m[][m[58;195H29[1;29H[?25h[?25l[58;196H8[1;28H[?25h[?25l[58;196H7[1;27H[?25h[?25l[][58;196H6[1;26H[?25h[?25l[58;196H5[1;25H[?25h[?25l[58;196H4[1;24H[?25h[?25l[58;196H3[1;23H[?25h[?25l[58;196H2[1;22H[?25h[?25l[58;196H1[1;21H[?25h[?25l[58;196H0[1;20H[?25h[?25l[58;195H19[1;19H[?25h[?25l[1;19H[K[2;1H[1m[32mchar[m msg[] = [1m[35m"Hello Test"[m;[1m[32mvoid[m test([1m[32mvoid[m) {printf([1m[35m"[m[1m[31m%s\n[m[1m[35m"[m, msg);}[2;65H[K[58;193H2,1 [2;1H[?25h[?25l[2;1H[K[3;1H[1m[32mchar[m msg[] = [1m[35m"Hello Test"[m;[1m[32mvoid[m test([1m[32mvoid[m) {printf([1m[35m"[m[1m[31m%s\n[m[1m[35m"[m, msg);}[3;65H[K[58;193H3[3;1H[?25h[?25l/[1m[32mchar[m msg[] = [1m[35m"Hello Test"[m;[1m[32mvoid[m test([1m[32mvoid[m) {printf([1m[35m"[m[1m[31m%s\n[m[1m[35m"[m, msg);}[58;195H2[3;2H[?25h[?25l[1m[36m//char msg[] = [m[1m[35m"Hello Test"[m[1m[36m;void test(void) {printf([m[1m[35m"%s[m[1m[31m\n[m[1m[35m"[m[1m[36m, msg);}[m[58;195H3[3;3H[?25h[?25l[58;195H4[3;4H[?25h[?25l[58;195H5[3;5H[?25h[?25l[58;195H6[3;6H[?25h[?25l[58;195H7[3;7H[?25h[?25l[58;195H8[3;8H[?25h[?25l[58;195H9[3;9H[?25h[?25l[58;195H10[3;10H[?25h[?25l[1C[1m[36m[46m[][m[1m[36m = [m[1m[35m"Hello Test"[m[1m[36m;void test(void) {printf([m[1m[35m"%s[m[1m[31m\n[m[1m[35m"[m[1m[36m, msg);}[m[58;196H1[3;11H[?25h[?25l[58;196H2[3;12H[?25h[?25l[58;196H3[3;13H[?25h[?25l[1m[36m[] = [m[1m[35m"Hello Test"[m[1m[36m;void test(void) {printf([m[1m[35m"%s[m[1m[31m\n[m[1m[35m"[m[1m[36m, msg);}[m[58;196H4[3;14H[?25h[?25l[58;196H5[3;15H[?25h[?25l[58;196H6[3;16H[?25h[?25l[58;196H7[3;17H[?25h[?25l[58;196H8[3;18H[?25h[?25l[58;196H9[3;19H[?25h[?25l[58;195H20[3;20H[?25h[?25l[58;196H1[3;21H[?25h[?25l[58;196H2[3;22H[?25h[?25l[58;196H3[3;23H[?25h[?25l[58;196H4[3;24H[?25h[?25l[58;196H5[3;25H[?25h[?25l[58;196H6[3;26H[?25h[?25l[58;196H7[3;27H[?25h[?25l[58;196H8[3;28H[?25h[?25l[58;196H9[3;29H[?25h[?25l[3;29H[K[4;1H[1m[36m//void test(void) {printf([m[1m[35m"%s[m[1m[31m\n[m[1m[35m"[m[1m[36m, msg);}[m[4;41H[K[58;193H4,3 [4;3H[?25h[?25l[4;3H[K[5;1H[1m[36m//void test(void) {printf([m[1m[35m"%s[m[1m[31m\n[m[1m[35m"[m[1m[36m, msg);}[m[5;41H[K[58;193H5[5;3H[?25h[?25l/[1m[32mvoid[m test([1m[32mvoid[m) {printf([1m[35m"[m[1m[31m%s\n[m[1m[35m"[m, msg);}[5;40H[K[58;195H2[5;2H[?25h[?25l[1m[32mvoid[m test([1m[32mvoid[m) {printf([1m[35m"[m[1m[31m%s\n[m[1m[35m"[m, msg);}[5;39H[K[58;195H1[5;1H[?25h[?25l[58;193H4[4;1H[?25h[?25l[58;195H2[4;2H[?25h[?25l[58;195H3[4;3H[?25h[?25l/[4;2H[K[58;195H2[4;2H[?25h[?25l[4;1H[K[58;195H1[4;1H[?25h[?25l[58;193H5[5;1H[?25h[?25l[58;195H2[5;2H[?25h[?25l[58;195H3[5;3H[?25h[?25l[58;195H6[5;6H[?25h[?25l[58;195H7[5;7H[?25h[?25l[58;195H8[5;8H[?25h[?25l[58;195H9[5;9H[?25h[?25lt[46m([4C)[m[58;195H10[5;10H[?25h[?25l[58;196H1[5;11H[?25h[?25l([4C)[58;196H2[5;12H[?25h[?25l[58;196H3[5;13H[?25h[?25l[58;196H4[5;14H[?25h[?25l[46m([4C)[m[58;196H5[5;15H[?25h[?25l[58;196H6[5;16H[?25h[?25l([4C) [46m{[20C}[m[58;196H7[5;17H[?25h[?25l[58;196H8[5;18H[?25h[?25l{[20C}[58;196H9[5;19H[?25h[?25l[46m{[20C}[m[58;196H8[5;18H[?25h[?25l[5;18H[K[6;1H        printf([1m[35m"[m[1m[31m%s\n[m[1m[35m"[m, msg);}[6;30H[K[5;17H{[58;193H6,2-9[6;9H[?25h[?25l[58;195H3-10[6;10H[?25h[?25l[58;195H4-11[6;11H[?25h[?25l[58;195H5-12[6;12H[?25h[?25l[58;195H6-13[6;13H[?25h[?25l[58;195H7-14[6;14H[?25h[?25lf[46m([11C)[m[58;195H8-15[6;15H[?25h[?25l[58;195H9-16[6;16H[?25h[?25l([11C)[58;195H10-17[6;17H[?25h[?25l[58;196H1-18[6;18H[?25h[?25l[58;196H2-19[6;19H[?25h[?25l[58;196H3-20[6;20H[?25h[?25l[58;196H4-21[6;21H[?25h[?25l[58;196H5-22[6;22H[?25h[?25l[58;196H6-23[6;23H[?25h[?25l[58;196H7-24[6;24H[?25h[?25l[58;196H8-25[6;25H[?25h[?25l[58;196H9-26[6;26H[?25h[?25l[6;15H[46m([11C)[m[58;195H20-27[6;27H[?25h[?25l[58;196H1-28[6;28H[?25h[?25l[5;17H[46m{[m[6;15H([11C);[46m}[m[58;196H2-29[6;29H[?25h[?25l[6;29H[K[7;1H}[7;2H[K[7;1H[46m}[m[58;193H7,1    [7;1H[?25h[58;1H[K[7;1H[?25l[58;183H^[[7;1H[58;183H  [7;1H[58;193H7,1[11CAll[7;1H[?25h[?25l[58;183H:[7;1H[58;183H[K[58;1H:[?25hwq[?25l[?2004l[>4;m"test.c" [New] 7L, 92B written[23;2t[23;1t
[?1004l[?2004l[?1l>[?25h[>4;m[?1049l[23;0;0t[?2004h]0;chaehoon@chaehoon: ~/Projects/labs/lab10chaehoon@chaehoon:~/Projects/labs/lab10$ vi test.cmv test2.c practice2.c[13Pvi test.c
[?2004l[?1049h[22;0;0t[>4;2m[?1h=[?2004h[?1004h[1;58r[?12h[?12l[22;2t[22;1t[27m[23m[29m[m[H[2J[?25l[58;1H"test.c" 7L, 92B[2;1H▽[6n[2;1H  [3;1HPzz\[0%m[6n[3;1H           [1;1H[>c]10;?]11;?[1;1H[35m#include [m[31m<stdio.h>[m[2;1H[K[3;1H[34m//char msg[] = [m[31m"Hello Test"[m[34m;[m[3;29H[K[5;1H[32mvoid[m test([32mvoid[m) [46m{[m[6;9Hprintf([31m"[m[35m%s\n[m[31m"[m, msg);
[46m}[m
[1m[34m~                                                                                                                                                                                                                 [9;1H~                                                                                                                                                                                                                 [10;1H~                                                                                                                                                                                                                 [11;1H~                                                                                                                                                                                                                 [12;1H~                                                                                                                                                                                                                 [13;1H~                                                                                                                                                                                                                 [14;1H~                                                                                                                                                                                                                 [15;1H~                                                                                                                                                                                                                 [16;1H~                                                                                                                                                                                                                 [17;1H~                                                                                                                                                                                                                 [18;1H~                                                                                                                                                                                                                 [19;1H~                                                                                                                                                                                                                 [20;1H~                                                                                                                                                                                                                 [21;1H~                                                                                                                                                                                                                 [22;1H~                                                                                                                                                                                                                 [23;1H~                                                                                                                                                                                                                 [24;1H~                                                                                                                                                                                                                 [25;1H~                                                                                                                                                                                                                 [26;1H~                                                                                                                                                                                                                 [27;1H~                                                                                                                                                                                                                 [28;1H~                                                                                                                                                                                                                 [29;1H~                                                                                                                                                                                                                 [30;1H~                                                                                                                                                                                                                 [31;1H~                                                                                                                                                                                                                 [32;1H~                                                                                                                                                                                                                 [33;1H~                                                                                                                                                                                                                 [34;1H~                                                                                                                                                                                                                 [35;1H~                                                                                                                                                                                                                 [36;1H~                                                                                                                                                                                                                 [37;1H~                                                                                                                                                                                                                 [38;1H~                                                                                                                                                                                                                 [39;1H~                                                                                                                                                                                                                 [40;1H~                                                                                                                                                                                                                 [41;1H~                                                                                                                                                                                                                 [42;1H~                                                                                                                                                                                                                 [43;1H~                                                                                                                                                                                                                 [44;1H~                                                                                                                                                                                                                 [45;1H~                                                                                                                                                                                                                 [46;1H~                                                                                                                                                                                                                 [47;1H~                                                                                                                                                                                                                 [48;1H~                                                                                                                                                                                                                 [49;1H~                                                                                                                                                                                                                 [50;1H~                                                                                                                                                                                                                 [51;1H~                                                                                                                                                                                                                 [52;1H~                                                                                                                                                                                                                 [53;1H~                                                                                                                                                                                                                 [54;1H~                                                                                                                                                                                                                 [55;1H~                                                                                                                                                                                                                 [56;1H~                                                                                                                                                                                                                 [57;1H~                                                                                                                                                                                                                 [m[58;193H7,1[11CAll[7;1H[?25h[?12$p[?25l[58;183H0[7;1H[58;184H0[7;1H[58;185H0[7;1H[58;186H/[7;1H[58;187H0[7;1H[58;188H0[7;1H[58;189H0[7;1H[58;190H0[7;1H[58;191H/[7;1H[58;192H0[7;1H[58;183H          [7;1H[27m[23m[29m[m[H[2J[1;1H[1m[34m#include [m[1m[35m<stdio.h>[m

[1m[36m//char msg[] = [m[1m[35m"Hello Test"[m[1m[36m;[m

[1m[32mvoid[m test([1m[32mvoid[m) [46m{[m[6;9Hprintf([1m[35m"[m[1m[31m%s\n[m[1m[35m"[m, msg);
[46m}[m
[1m[34m~                                                                                                                                                                                                                 [9;1H~                                                                                                                                                                                                                 [10;1H~                                                                                                                                                                                                                 [11;1H~                                                                                                                                                                                                                 [12;1H~                                                                                                                                                                                                                 [13;1H~                                                                                                                                                                                                                 [14;1H~                                                                                                                                                                                                                 [15;1H~                                                                                                                                                                                                                 [16;1H~                                                                                                                                                                                                                 [17;1H~                                                                                                                                                                                                                 [18;1H~                                                                                                                                                                                                                 [19;1H~                                                                                                                                                                                                                 [20;1H~                                                                                                                                                                                                                 [21;1H~                                                                                                                                                                                                                 [22;1H~                                                                                                                                                                                                                 [23;1H~                                                                                                                                                                                                                 [24;1H~                                                                                                                                                                                                                 [25;1H~                                                                                                                                                                                                                 [26;1H~                                                                                                                                                                                                                 [27;1H~                                                                                                                                                                                                                 [28;1H~                                                                                                                                                                                                                 [29;1H~                                                                                                                                                                                                                 [30;1H~                                                                                                                                                                                                                 [31;1H~                                                                                                                                                                                                                 [32;1H~                                                                                                                                                                                                                 [33;1H~                                                                                                                                                                                                                 [34;1H~                                                                                                                                                                                                                 [35;1H~                                                                                                                                                                                                                 [36;1H~                                                                                                                                                                                                                 [37;1H~                                                                                                                                                                                                                 [38;1H~                                                                                                                                                                                                                 [39;1H~                                                                                                                                                                                                                 [40;1H~                                                                                                                                                                                                                 [41;1H~                                                                                                                                                                                                                 [42;1H~                                                                                                                                                                                                                 [43;1H~                                                                                                                                                                                                                 [44;1H~                                                                                                                                                                                                                 [45;1H~                                                                                                                                                                                                                 [46;1H~                                                                                                                                                                                                                 [47;1H~                                                                                                                                                                                                                 [48;1H~                                                                                                                                                                                                                 [49;1H~                                                                                                                                                                                                                 [50;1H~                                                                                                                                                                                                                 [51;1H~                                                                                                                                                                                                                 [52;1H~                                                                                                                                                                                                                 [53;1H~                                                                                                                                                                                                                 [54;1H~                                                                                                                                                                                                                 [55;1H~                                                                                                                                                                                                                 [56;1H~                                                                                                                                                                                                                 [57;1H~                                                                                                                                                                                                                 [m[58;193H7,1[11CAll"test.c" 7L, 92B[7;1H[?25h[?25l[58;183Hi[7;1H[58;183H [7;1H[58;1H[1m-- INSERT --[m[58;14H[K[58;193H7,1[11CAll[7;1H[?25h[?25l[5;17H{

}[58;193H6[6;1H[?25h[?25l[58;193H5[5;1H[?25h[?25l[58;193H4[4;1H[?25h[?25l[58;193H3[3;1H[?25h[?25l[58;193H2[2;1H[?25h[?25l[58;193H3[3;1H[?25h[?25l[58;193H4[4;1H[?25h[?25l[5;57r[5;1H[L[1;58r[58;193H[K[58;193H5,1[11CAll[5;1H[?25h[?25l[58;193H4[4;1H[?25h[?25le[58;195H2[4;2H[?25h[?25lx[58;195H3[4;3H[?25h[?25lt[58;195H4[4;4H[?25h[?25le[58;195H5[4;5H[?25h[?25lr[58;195H6[4;6H[?25h[?25l[1m[32mextern[m[58;195H7[4;7H[?25h[?25l[58;195H8[4;8H[?25h[?25lc[58;195H9[4;9H[?25h[?25lh[58;195H10[4;10H[?25h[?25la[58;196H1[4;11H[?25h[?25l[1m[32mchar[m[58;196H2[4;12H[?25h[?25l[58;196H3[4;13H[?25h[?25lm[58;196H4[4;14H[?25h[?25ls[58;196H5[4;15H[?25h[?25lg[58;196H6[4;16H[?25h[?25l[[6;17H[1m[37m[41m{[7;28H;
}[m[58;196H7[4;17H[?25h[?25l][6;17H{[7;28H;
}[4;16H[46m[][m[58;196H8[4;18H[?25h[?25l[][58;196H9[4;19H[?25h[?25l=[58;195H20[4;20H[?25h[?25l[58;196H1[4;21H[?25h[?25l[1m[35m"[m[58;196H2[4;22H[?25h[?25l[1m[35mH[m[58;196H3[4;23H[?25h[?25l[1m[35me[m[58;196H4[4;24H[?25h[?25l[1m[35ml[m[58;196H5[4;25H[?25h[?25l[1m[35ml[m[58;196H6[4;26H[?25h[?25l[1m[35mo[m[58;196H7[4;27H[?25h[?25l[1m[35m [m[58;196H8[4;28H[?25h[?25l[1m[35mT[m[58;196H9[4;29H[?25h[?25l[1m[35me[m[58;195H30[4;30H[?25h[?25l[1m[35ms[m[58;196H1[4;31H[?25h[?25l[1m[35mt[m[58;196H2[4;32H[?25h[?25l[1m[35m"[m[58;196H3[4;33H[?25h[?25l;[58;196H4[4;34H[?25h[58;1H[K[4;33H[?25l[58;183H^[[4;33H[58;183H  [4;34H[58;193H4,33[10CAll[4;33H[?25h[?25l[58;183H:[4;33H[58;183H[K[58;1H:[?25hwq[?25l[?2004l[>4;m"test.c" 8L, 126B written[23;2t[23;1t
[?1004l[?2004l[?1l>[?25h[>4;m[?1049l[23;0;0t[?2004h]0;chaehoon@chaehoon: ~/Projects/labs/lab10chaehoon@chaehoon:~/Projects/labs/lab10$ vi test.cmv test2.c practice2.cobjdump[C[C[C[C[C[C[K[K[K[K[K[K[K[K[K[K[K[K[K[K[K[K[K[K[K[K[K[K[K[K[K[K[K[K[Kobjdump practice1.c[K[K.o-practice1.orpractice1.o practice1.o[C[C[C[C[C[C[C[C[C[C[C
[?2004lobjdump: 'practice1.o': No such file
[?2004h]0;chaehoon@chaehoon: ~/Projects/labs/lab10chaehoon@chaehoon:~/Projects/labs/lab10$ gcc -c practicea[K1.c
[?2004l[01m[Kcc1:[m[K [01;31m[Kfatal error: [m[Kpractice1.c: No such file or directory
compilation terminated.
[?2004h]0;chaehoon@chaehoon: ~/Projects/labs/lab10chaehoon@chaehoon:~/Projects/labs/lab10$ gcc -c practice1.c[C[1P.c[C[C
[?2004l[?2004h]0;chaehoon@chaehoon: ~/Projects/labs/lab10chaehoon@chaehoon:~/Projects/labs/lab10$ gcc -c practice.c1.cobjdump -r practice1.o[C[1P.o[C[C
[?2004l
practice.o:     file format elf64-x86-64

RELOCATION RECORDS FOR [.text]:
OFFSET           TYPE              VALUE 
000000000000000b R_X86_64_PC32     msg-0x0000000000000004
0000000000000013 R_X86_64_PLT32    puts-0x0000000000000004


RELOCATION RECORDS FOR [.eh_frame]:
OFFSET           TYPE              VALUE 
0000000000000020 R_X86_64_PC32     .text


[?2004h]0;chaehoon@chaehoon: ~/Projects/labs/lab10chaehoon@chaehoon:~/Projects/labs/lab10$ gcc -c practice2.c test.c
[?2004l[01m[Ktest.c:4:13:[m[K [01;35m[Kwarning: [m[K‘[01m[Kmsg[m[K’ initialized and declared ‘[01m[Kextern[m[K’
    4 | extern char [01;35m[Kmsg[m[K[] = "Hello Test";
      |             [01;35m[K^~~[m[K
[?2004h]0;chaehoon@chaehoon: ~/Projects/labs/lab10chaehoon@chaehoon:~/Projects/labs/lab10$ gcc -o test.[K[K[K[K[Kpractice2.o test.o [C[C[1@p[1@r[1@a[1@c[1@t[1@i[1@c[1@e[1@e[1@2[1@ [C[C[C[C[C[C[C[C[C[C[C[C[C[C[C[C[C[C[C[C[1P[C[C[C[C[C[C[C[C[C[C[C[C[C[C[C[C[C[C[C[C[C
[?2004l/usr/bin/ld: test.o:(.data+0x0): multiple definition of `msg'; practice2.o:(.data+0x0): first defined here
collect2: error: ld returned 1 exit status
[?2004h]0;chaehoon@chaehoon: ~/Projects/labs/lab10chaehoon@chaehoon:~/Projects/labs/lab10$ gcc -o practice2 practice2.o test.o [1P[1P[1P[1P[1P[1P[1P[1P[1P[1P[1P[1P[1P[C[C[C[C[C[C[C[C[C[C[C[C[C[C[C[C[C[C[C-o practice2
[?2004l/usr/bin/ld: test.o:(.data+0x0): multiple definition of `msg'; practice2.o:(.data+0x0): first defined here
collect2: error: ld returned 1 exit status
[?2004h]0;chaehoon@chaehoon: ~/Projects/labs/lab10chaehoon@chaehoon:~/Projects/labs/lab10$ gcc practice2.o test.o -o practice2-o practice2 practice2.o test.o [11Pc practice2.c test.c[4Pobjdump -r practice.o[K[K
[?2004lobjdump: 'practice': No such file
[?2004h]0;chaehoon@chaehoon: ~/Projects/labs/lab10chaehoon@chaehoon:~/Projects/labs/lab10$ objdump -r practicegcc practice2.o test.o -o practice2-o practice2 practice2.o test.o [11Pc practice2.c test.c[C[C[C[1P[1@o[C[C[C[C[C[C[C[C[C[C[C[C[C[C[C[C[C[C[C[C
[?2004l[01m[Ktest.c:4:13:[m[K [01;35m[Kwarning: [m[K‘[01m[Kmsg[m[K’ initialized and declared ‘[01m[Kextern[m[K’
    4 | extern char [01;35m[Kmsg[m[K[] = "Hello Test";
      |             [01;35m[K^~~[m[K
/usr/bin/ld: /usr/lib/gcc/x86_64-linux-gnu/11/../../../x86_64-linux-gnu/Scrt1.o: in function `_start':
(.text+0x1b): undefined reference to `main'
collect2: error: ld returned 1 exit status
[?2004h]0;chaehoon@chaehoon: ~/Projects/labs/lab10chaehoon@chaehoon:~/Projects/labs/lab10$ gcc -o practice2.c test.c[K[K[K[K[K[K[1P[C[C[C
[?2004l[01m[Kgcc:[m[K [01;31m[Kfatal error: [m[Kno input files
compilation terminated.
[?2004h]0;chaehoon@chaehoon: ~/Projects/labs/lab10chaehoon@chaehoon:~/Projects/labs/lab10$ vi addvec.c
[?2004l[?1049h[22;0;0t[>4;2m[?1h=[?2004h[?1004h[1;58r[?12h[?12l[22;2t[22;1t[27m[23m[29m[m[H[2J[?25l[58;1H"addvec.c" [New][2;1H▽[6n[2;1H  [3;1HPzz\[0%m[6n[3;1H           [1;1H[>c]10;?]11;?[2;1H[1m[34m~                                                                                                                                                                                                                 [3;1H~                                                                                                                                                                                                                 [4;1H~                                                                                                                                                                                                                 [5;1H~                                                                                                                                                                                                                 [6;1H~                                                                                                                                                                                                                 [7;1H~                                                                                                                                                                                                                 [8;1H~                                                                                                                                                                                                                 [9;1H~                                                                                                                                                                                                                 [10;1H~                                                                                                                                                                                                                 [11;1H~                                                                                                                                                                                                                 [12;1H~                                                                                                                                                                                                                 [13;1H~                                                                                                                                                                                                                 [14;1H~                                                                                                                                                                                                                 [15;1H~                                                                                                                                                                                                                 [16;1H~                                                                                                                                                                                                                 [17;1H~                                                                                                                                                                                                                 [18;1H~                                                                                                                                                                                                                 [19;1H~                                                                                                                                                                                                                 [20;1H~                                                                                                                                                                                                                 [21;1H~                                                                                                                                                                                                                 [22;1H~                                                                                                                                                                                                                 [23;1H~                                                                                                                                                                                                                 [24;1H~                                                                                                                                                                                                                 [25;1H~                                                                                                                                                                                                                 [26;1H~                                                                                                                                                                                                                 [27;1H~                                                                                                                                                                                                                 [28;1H~                                                                                                                                                                                                                 [29;1H~                                                                                                                                                                                                                 [30;1H~                                                                                                                                                                                                                 [31;1H~                                                                                                                                                                                                                 [32;1H~                                                                                                                                                                                                                 [33;1H~                                                                                                                                                                                                                 [34;1H~                                                                                                                                                                                                                 [35;1H~                                                                                                                                                                                                                 [36;1H~                                                                                                                                                                                                                 [37;1H~                                                                                                                                                                                                                 [38;1H~                                                                                                                                                                                                                 [39;1H~                                                                                                                                                                                                                 [40;1H~                                                                                                                                                                                                                 [41;1H~                                                                                                                                                                                                                 [42;1H~                                                                                                                                                                                                                 [43;1H~                                                                                                                                                                                                                 [44;1H~                                                                                                                                                                                                                 [45;1H~                                                                                                                                                                                                                 [46;1H~                                                                                                                                                                                                                 [47;1H~                                                                                                                                                                                                                 [48;1H~                                                                                                                                                                                                                 [49;1H~                                                                                                                                                                                                                 [50;1H~                                                                                                                                                                                                                 [51;1H~                                                                                                                                                                                                                 [52;1H~                                                                                                                                                                                                                 [53;1H~                                                                                                                                                                                                                 [54;1H~                                                                                                                                                                                                                 [55;1H~                                                                                                                                                                                                                 [56;1H~                                                                                                                                                                                                                 [57;1H~                                                                                                                                                                                                                 [m[58;193H0,0-1[9CAll[1;1H[?25h[?12$p[?25l[58;183H^[[1;1H[58;185H][1;1H[58;186H1[1;1H[58;187H0[1;1H[58;183H     [1;1H[27m[23m[29m[m[H[2J[2;1H[1m[34m~                                                                                                                                                                                                                 [3;1H~                                                                                                                                                                                                                 [4;1H~                                                                                                                                                                                                                 [5;1H~                                                                                                                                                                                                                 [6;1H~                                                                                                                                                                                                                 [7;1H~                                                                                                                                                                                                                 [8;1H~                                                                                                                                                                                                                 [9;1H~                                                                                                                                                                                                                 [10;1H~                                                                                                                                                                                                                 [11;1H~                                                                                                                                                                                                                 [12;1H~                                                                                                                                                                                                                 [13;1H~                                                                                                                                                                                                                 [14;1H~                                                                                                                                                                                                                 [15;1H~                                                                                                                                                                                                                 [16;1H~                                                                                                                                                                                                                 [17;1H~                                                                                                                                                                                                                 [18;1H~                                                                                                                                                                                                                 [19;1H~                                                                                                                                                                                                                 [20;1H~                                                                                                                                                                                                                 [21;1H~                                                                                                                                                                                                                 [22;1H~                                                                                                                                                                                                                 [23;1H~                                                                                                                                                                                                                 [24;1H~                                                                                                                                                                                                                 [25;1H~                                                                                                                                                                                                                 [26;1H~                                                                                                                                                                                                                 [27;1H~                                                                                                                                                                                                                 [28;1H~                                                                                                                                                                                                                 [29;1H~                                                                                                                                                                                                                 [30;1H~                                                                                                                                                                                                                 [31;1H~                                                                                                                                                                                                                 [32;1H~                                                                                                                                                                                                                 [33;1H~                                                                                                                                                                                                                 [34;1H~                                                                                                                                                                                                                 [35;1H~                                                                                                                                                                                                                 [36;1H~                                                                                                                                                                                                                 [37;1H~                                                                                                                                                                                                                 [38;1H~                                                                                                                                                                                                                 [39;1H~                                                                                                                                                                                                                 [40;1H~                                                                                                                                                                                                                 [41;1H~                                                                                                                                                                                                                 [42;1H~                                                                                                                                                                                                                 [43;1H~                                                                                                                                                                                                                 [44;1H~                                                                                                                                                                                                                 [45;1H~                                                                                                                                                                                                                 [46;1H~                                                                                                                                                                                                                 [47;1H~                                                                                                                                                                                                                 [48;1H~                                                                                                                                                                                                                 [49;1H~                                                                                                                                                                                                                 [50;1H~                                                                                                                                                                                                                 [51;1H~                                                                                                                                                                                                                 [52;1H~                                                                                                                                                                                                                 [53;1H~                                                                                                                                                                                                                 [54;1H~                                                                                                                                                                                                                 [55;1H~                                                                                                                                                                                                                 [56;1H~                                                                                                                                                                                                                 [57;1H~                                                                                                                                                                                                                 [m[58;193H0,0-1[9CAll"addvec.c" [New][1;1H[?25h[?25l[58;183Hi[1;1H[58;183H [1;1H[58;1H[1m-- INSERT --[m[58;13H[K[58;193H0,1[11CAll[1;1H[?25h[?25l[1m[32mvoid[m addvec([1m[32mint[m* x, [1m[32mint[m* y, [1m[32mint[m* z, [1m[32mint[m len) {[1m[32mint[m i;[1m[33mfor[m (i= [?25h[?25l[1m[35m0[m; i< len; i++) {z[i] = x[i] + y[i];}}[1;46H[46m{[51C}[m[58;193H1,99[1;99H[?25h[?25l[58;196H8[1;98H[?25h[?25l[1;46H{[30C[46m{[19C}[m}[58;196H7[1;97H[?25h[?25l[1;77H{[15C[46m[[mi[46m][m;}[58;196H6[1;96H[?25h[?25l[58;196H5[1;95H[?25h[?25l[58;196H4[1;94H[?25h[?25l[58;196H3[1;93H[?25h[?25l[i][58;196H2[1;92H[?25h[?25l[58;196H1[1;91H[?25h[?25l[58;196H0[1;90H[?25h[?25l[46m[[mi[46m][m[58;195H89[1;89H[?25h[?25l[58;196H8[1;88H[?25h[?25l[58;196H7[1;87H[?25h[?25l[58;196H6[1;86H[?25h[?25l[i][58;196H5[1;85H[?25h[?25l[58;196H4[1;84H[?25h[?25l[58;196H3[1;83H[?25h[?25l[46m[[mi[46m][m[58;196H2[1;82H[?25h[?25l[58;196H1[1;81H[?25h[?25l[58;196H0[1;80H[?25h[?25l[58;195H79[1;79H[?25h[?25l[46m{[mz[i][15C[46m}[m[58;196H8[1;78H[?25h[?25l[58;196H7[1;77H[?25h[?25l[1;57H[46m([17C)[m {[19C}[58;196H6[1;76H[?25h[?25l[58;196H5[1;75H[?25h[?25l[1;57H([17C)[58;196H4[1;74H[?25h[?25l[58;196H3[1;73H[?25h[?25l[58;196H2[1;72H[?25h[?25l[58;196H1[1;71H[?25h[?25l[58;196H0[1;70H[?25h[?25l[58;195H69[1;69H[?25h[?25l[58;196H8[1;68H[?25h[?25l[58;196H7[1;67H[?25h[?25l[58;196H6[1;66H[?25h[?25l[58;196H5[1;65H[?25h[?25l[58;196H4[1;64H[?25h[?25l[58;196H3[1;63H[?25h[?25l[58;196H2[1;62H[?25h[?25l[58;196H1[1;61H[?25h[?25l[58;196H0[1;60H[?25h[?25l[58;195H59[1;59H[?25h[?25l[46m([17C)[m[58;196H8[1;58H[?25h[?25l[58;196H7[1;57H[?25h[?25l([17C)[58;196H6[1;56H[?25h[?25l[58;196H5[1;55H[?25h[?25l[58;196H4[1;54H[?25h[?25l[58;196H3[1;53H[?25h[?25l[58;196H2[1;52H[?25h[?25l[58;196H1[1;51H[?25h[?25l[58;196H0[1;50H[?25h[?25l[58;195H49[1;49H[?25h[?25l[58;196H8[1;48H[?25h[?25l[46m{[51C}[m[58;196H7[1;47H[?25h[?25l[58;196H6[1;46H[?25h[?25l[1;12H[46m([31C)[m {[51C}[58;196H5[1;45H[?25h[?25l[58;196H4[1;44H[?25h[?25l[1;12H([31C)[58;196H3[1;43H[?25h[?25l[58;196H2[1;42H[?25h[?25l[58;196H1[1;41H[?25h[?25l[58;196H0[1;40H[?25h[?25l[58;195H39[1;39H[?25h[?25l[58;196H8[1;38H[?25h[?25l[58;196H7[1;37H[?25h[?25l[58;196H6[1;36H[?25h[?25l[58;196H5[1;35H[?25h[?25l[58;196H4[1;34H[?25h[?25l[58;196H3[1;33H[?25h[?25l[58;196H2[1;32H[?25h[?25l[58;196H1[1;31H[?25h[?25l[58;196H0[1;30H[?25h[?25l[58;195H29[1;29H[?25h[?25l[58;196H8[1;28H[?25h[?25l[58;196H7[1;27H[?25h[?25l[58;196H6[1;26H[?25h[?25l[58;196H5[1;25H[?25h[?25l[58;196H4[1;24H[?25h[?25l[58;196H3[1;23H[?25h[?25l[58;196H2[1;22H[?25h[?25l[58;196H1[1;21H[?25h[?25l[58;196H0[1;20H[?25h[?25l[58;195H19[1;19H[?25h[?25l[58;196H8[1;18H[?25h[?25l[58;196H7[1;17H[?25h[?25l[58;196H6[1;16H[?25h[?25l[58;196H5[1;15H[?25h[?25l[58;196H4[1;14H[?25h[?25l[46m([31C)[m[58;196H3[1;13H[?25h[?25l[58;196H2[1;12H[?25h[?25l([31C)[58;196H1[1;11H[?25h[?25lc[46m([31C)[m[58;196H2[1;12H[?25h[?25l[58;196H3[1;13H[?25h[?25l[58;196H2[1;12H[?25h[?25l[1;12H[K[2;1H([1m[32mint[m* x, [1m[32mint[m* y, [1m[32mint[m* z, [1m[32mint[m len) {[1m[32mint[m i;[1m[33mfor[m (i= [1m[35m0[m; i< len; i++) {z[i] = x[i] + y[i];}}[2;88H[K[2;1H[46m([31C)[m[58;193H2,1 [2;1H[?25h[?25l[1;12H([1m[32mint[m* x, [1m[32mint[m* y, [1m[32mint[m* z, [1m[32mint[m len) {[1m[32mint[m i;[1m[33mfor[m (i= [1m[35m0[m; i< len; i++) {z[i] = x[i] + y[i];}}
[1m[34m~                                                                                                                                                                                                                 [m[1;12H[46m([31C)[m[58;193H1,12[1;12H[?25h[?25l[58;196H3[1;13H[?25h[?25l([31C)[58;196H4[1;14H[?25h[?25l[58;196H5[1;15H[?25h[?25l[58;196H6[1;16H[?25h[?25l[58;196H7[1;17H[?25h[?25l[58;196H8[1;18H[?25h[?25l[58;196H9[1;19H[?25h[?25l[58;195H20[1;20H[?25h[?25l[58;196H1[1;21H[?25h[?25l[58;196H2[1;22H[?25h[?25l[58;196H3[1;23H[?25h[?25l[58;196H4[1;24H[?25h[?25l[58;196H5[1;25H[?25h[?25l[58;196H6[1;26H[?25h[?25l[58;196H7[1;27H[?25h[?25l[58;196H8[1;28H[?25h[?25l[58;196H9[1;29H[?25h[?25l[58;195H30[1;30H[?25h[?25l[58;196H1[1;31H[?25h[?25l[58;196H2[1;32H[?25h[?25l[58;196H3[1;33H[?25h[?25l[58;196H4[1;34H[?25h[?25l[58;196H5[1;35H[?25h[?25l[58;196H6[1;36H[?25h[?25l[58;196H7[1;37H[?25h[?25l[58;196H8[1;38H[?25h[?25l[58;196H9[1;39H[?25h[?25l[58;195H40[1;40H[?25h[?25l[58;196H1[1;41H[?25h[?25l[58;196H2[1;42H[?25h[?25l[58;196H3[1;43H[?25h[?25l[1;12H[46m([31C)[m[58;196H4[1;44H[?25h[?25l[58;196H5[1;45H[?25h[?25l[1;12H([31C) [46m{[51C}[m[58;196H6[1;46H[?25h[?25l[58;196H7[1;47H[?25h[?25l{[51C}[58;196H8[1;48H[?25h[?25l[46m{[51C}[m[58;196H7[1;47H[?25h[?25l[1;47H[K[2;1H        [1m[32mint[m i;[1m[33mfor[m (i= [1m[35m0[m; i< len; i++) {z[i] = x[i] + y[i];}}[2;61H[K[1;46H{[58;193H2,2-9[2;9H[?25h[?25l[58;195H3-10[2;10H[?25h[?25l[58;195H4-11[2;11H[?25h[?25l[58;195H5-12[2;12H[?25h[?25l[58;195H6-13[2;13H[?25h[?25l[58;195H7-14[2;14H[?25h[?25l[58;195H8-15[2;15H[?25h[?25l[58;195H9-16[2;16H[?25h[?25l[58;195H8-15[2;15H[?25h[?25l[2;15H[K[3;1H        [1m[33mfor[m (i= [1m[35m0[m; i< len; i++) {z[i] = x[i] + y[i];}}[3;55H[K[58;193H3,2-9 [3;9H[?25h[?25l[58;195H3-10[3;10H[?25h[?25l[58;195H4-11[3;11H[?25h[?25l[58;195H5-12[3;12H[?25h[?25l [46m([17C)[m[58;195H6-13[3;13H[?25h[?25l[58;195H7-14[3;14H[?25h[?25l([17C)[58;195H8-15[3;15H[?25h[?25l[58;195H9-16[3;16H[?25h[?25l[58;195H10-17[3;17H[?25h[?25l[58;196H1-18[3;18H[?25h[?25l[58;196H2-19[3;19H[?25h[?25l[58;196H3-20[3;20H[?25h[?25l[58;196H4-21[3;21H[?25h[?25l[58;196H5-22[3;22H[?25h[?25l[58;196H6-23[3;23H[?25h[?25l[58;196H7-24[3;24H[?25h[?25l[58;196H8-25[3;25H[?25h[?25l[58;196H9-26[3;26H[?25h[?25l[58;195H20-27[3;27H[?25h[?25l[58;196H1-28[3;28H[?25h[?25l[58;196H2-29[3;29H[?25h[?25l[58;196H3-30[3;30H[?25h[?25l[3;13H[46m([17C)[m[58;196H4-31[3;31H[?25h[?25l[58;196H5-32[3;32H[?25h[?25l[3;13H([17C) [46m{[19C}[m[58;196H6-33[3;33H[?25h[?25l[58;196H7-34[3;34H[?25h[?25l[3;34H[K[4;1H                z[i] = x[i] + y[i];}}[4;38H[K[3;33H{[58;193H4,3-17 [4;17H[?25h[?25lz[46m[[mi[46m][m[58;195H4-18[4;18H[?25h[?25l[58;195H5-19[4;19H[?25h[?25l[58;195H6-20[4;20H[?25h[?25l[58;195H7-21[4;21H[?25h[?25l[i][58;195H8-22[4;22H[?25h[?25l[58;195H9-23[4;23H[?25h[?25l[58;195H10-24[4;24H[?25h[?25lx[46m[[mi[46m][m[58;196H1-25[4;25H[?25h[?25l[58;196H2-26[4;26H[?25h[?25l[58;196H3-27[4;27H[?25h[?25l[58;196H4-28[4;28H[?25h[?25l[i][58;196H5-29[4;29H[?25h[?25l[58;196H6-30[4;30H[?25h[?25l[58;196H7-31[4;31H[?25h[?25ly[46m[[mi[46m][m[58;196H8-32[4;32H[?25h[?25l[58;196H9-33[4;33H[?25h[?25l[58;195H20-34[4;34H[?25h[?25l[58;196H1-35[4;35H[?25h[?25l[3;33H[46m{[m[4;32H[i];[46m}[m[58;196H2-36[4;36H[?25h[?25l[4;36H[K[5;1H        }}[5;11H[K[5;9H[46m}[m[58;193H5,2-9  [5;9H[?25h[?25l[1;46H[46m{[m[3;33H{[5;9H}[46m}[m[58;195H3-10[5;10H[?25h[?25l[5;10H[K[6;1H}[6;2H[K[6;1H[46m}[m[58;193H6,1   [6;1H[?25h[58;1H[K[6;1H[?25l[58;183H^[[6;1H[58;183H  [6;1H[58;193H6,1[11CAll[6;1H[?25h[?25l[58;183H:[6;1H[58;183H[K[58;1H:[?25hwq[?25l[?2004l[>4;m"addvec.c" [New] 6L, 109B written[23;2t[23;1t
[?1004l[?2004l[?1l>[?25h[>4;m[?1049l[23;0;0t[?2004h]0;chaehoon@chaehoon: ~/Projects/labs/lab10chaehoon@chaehoon:~/Projects/labs/lab10$ vi addvec.c[K[K[K[K[K[K[K[Kmultvec.c
[?2004l[?1049h[22;0;0t[>4;2m[?1h=[?2004h[?1004h[1;58r[?12h[?12l[22;2t[22;1t[27m[23m[29m[m[H[2J[?25l[58;1H"multvec.c" [New][2;1H▽[6n[2;1H  [3;1HPzz\[0%m[6n[3;1H           [1;1H[>c]10;?]11;?[2;1H[1m[34m~                                                                                                                                                                                                                 [3;1H~                                                                                                                                                                                                                 [4;1H~                                                                                                                                                                                                                 [5;1H~                                                                                                                                                                                                                 [6;1H~                                                                                                                                                                                                                 [7;1H~                                                                                                                                                                                                                 [8;1H~                                                                                                                                                                                                                 [9;1H~                                                                                                                                                                                                                 [10;1H~                                                                                                                                                                                                                 [11;1H~                                                                                                                                                                                                                 [12;1H~                                                                                                                                                                                                                 [13;1H~                                                                                                                                                                                                                 [14;1H~                                                                                                                                                                                                                 [15;1H~                                                                                                                                                                                                                 [16;1H~                                                                                                                                                                                                                 [17;1H~                                                                                                                                                                                                                 [18;1H~                                                                                                                                                                                                                 [19;1H~                                                                                                                                                                                                                 [20;1H~                                                                                                                                                                                                                 [21;1H~                                                                                                                                                                                                                 [22;1H~                                                                                                                                                                                                                 [23;1H~                                                                                                                                                                                                                 [24;1H~                                                                                                                                                                                                                 [25;1H~                                                                                                                                                                                                                 [26;1H~                                                                                                                                                                                                                 [27;1H~                                                                                                                                                                                                                 [28;1H~                                                                                                                                                                                                                 [29;1H~                                                                                                                                                                                                                 [30;1H~                                                                                                                                                                                                                 [31;1H~                                                                                                                                                                                                                 [32;1H~                                                                                                                                                                                                                 [33;1H~                                                                                                                                                                                                                 [34;1H~                                                                                                                                                                                                                 [35;1H~                                                                                                                                                                                                                 [36;1H~                                                                                                                                                                                                                 [37;1H~                                                                                                                                                                                                                 [38;1H~                                                                                                                                                                                                                 [39;1H~                                                                                                                                                                                                                 [40;1H~                                                                                                                                                                                                                 [41;1H~                                                                                                                                                                                                                 [42;1H~                                                                                                                                                                                                                 [43;1H~                                                                                                                                                                                                                 [44;1H~                                                                                                                                                                                                                 [45;1H~                                                                                                                                                                                                                 [46;1H~                                                                                                                                                                                                                 [47;1H~                                                                                                                                                                                                                 [48;1H~                                                                                                                                                                                                                 [49;1H~                                                                                                                                                                                                                 [50;1H~                                                                                                                                                                                                                 [51;1H~                                                                                                                                                                                                                 [52;1H~                                                                                                                                                                                                                 [53;1H~                                                                                                                                                                                                                 [54;1H~                                                                                                                                                                                                                 [55;1H~                                                                                                                                                                                                                 [56;1H~                                                                                                                                                                                                                 [57;1H~                                                                                                                                                                                                                 [m[58;193H0,0-1[9CAll[1;1H[?25h[?12$p[?25l[58;183H^[[1;1H[58;185H][1;1H[58;186H1[1;1H[58;187H1[1;1H[58;183H     [1;1H[27m[23m[29m[m[H[2J[2;1H[1m[34m~                                                                                                                                                                                                                 [3;1H~                                                                                                                                                                                                                 [4;1H~                                                                                                                                                                                                                 [5;1H~                                                                                                                                                                                                                 [6;1H~                                                                                                                                                                                                                 [7;1H~                                                                                                                                                                                                                 [8;1H~                                                                                                                                                                                                                 [9;1H~                                                                                                                                                                                                                 [10;1H~                                                                                                                                                                                                                 [11;1H~                                                                                                                                                                                                                 [12;1H~                                                                                                                                                                                                                 [13;1H~                                                                                                                                                                                                                 [14;1H~                                                                                                                                                                                                                 [15;1H~                                                                                                                                                                                                                 [16;1H~                                                                                                                                                                                                                 [17;1H~                                                                                                                                                                                                                 [18;1H~                                                                                                                                                                                                                 [19;1H~                                                                                                                                                                                                                 [20;1H~                                                                                                                                                                                                                 [21;1H~                                                                                                                                                                                                                 [22;1H~                                                                                                                                                                                                                 [23;1H~                                                                                                                                                                                                                 [24;1H~                                                                                                                                                                                                                 [25;1H~                                                                                                                                                                                                                 [26;1H~                                                                                                                                                                                                                 [27;1H~                                                                                                                                                                                                                 [28;1H~                                                                                                                                                                                                                 [29;1H~                                                                                                                                                                                                                 [30;1H~                                                                                                                                                                                                                 [31;1H~                                                                                                                                                                                                                 [32;1H~                                                                                                                                                                                                                 [33;1H~                                                                                                                                                                                                                 [34;1H~                                                                                                                                                                                                                 [35;1H~                                                                                                                                                                                                                 [36;1H~                                                                                                                                                                                                                 [37;1H~                                                                                                                                                                                                                 [38;1H~                                                                                                                                                                                                                 [39;1H~                                                                                                                                                                                                                 [40;1H~                                                                                                                                                                                                                 [41;1H~                                                                                                                                                                                                                 [42;1H~                                                                                                                                                                                                                 [43;1H~                                                                                                                                                                                                                 [44;1H~                                                                                                                                                                                                                 [45;1H~                                                                                                                                                                                                                 [46;1H~                                                                                                                                                                                                                 [47;1H~                                                                                                                                                                                                                 [48;1H~                                                                                                                                                                                                                 [49;1H~                                                                                                                                                                                                                 [50;1H~                                                                                                                                                                                                                 [51;1H~                                                                                                                                                                                                                 [52;1H~                                                                                                                                                                                                                 [53;1H~                                                                                                                                                                                                                 [54;1H~                                                                                                                                                                                                                 [55;1H~                                                                                                                                                                                                                 [56;1H~                                                                                                                                                                                                                 [57;1H~                                                                                                                                                                                                                 [m[58;193H0,0-1[9CAll"multvec.c" [New][1;1H[?25h[?25l[58;183Hi[1;1H[58;183H [1;1H[58;1H[1m-- INSERT --[m[58;13H[K[58;193H0,1[11CAll[1;1H[?25h[?25l[58;193H1,2-9[1;9H[?25h[?25l[58;195H1  [1;1H[?25h[?25l[1m[32mvoid[m multvec([1m[32mint[m* x, [1m[32mint[m* y, [1m[32mint[m* z, [1m[32mint[m len) {[1m[32mint[m i;[1m[33mfor[m (i[?25h[?25l= [1m[35m0[m; i< len; i++) {z[i] = x[i] * y[i];}}[1;47H[46m{[51C}[m[58;196H00[1;100H[?25h[?25l[58;195H99 [1;99H[?25h[?25l[1;47H{[30C[46m{[19C}[m}[58;196H8[1;98H[?25h[?25l[1;78H{[15C[46m[[mi[46m][m;}[58;196H7[1;97H[?25h[?25l[58;196H6[1;96H[?25h[?25l[58;196H5[1;95H[?25h[?25l[58;196H4[1;94H[?25h[?25l[i][58;196H3[1;93H[?25h[?25l[58;196H2[1;92H[?25h[?25l[58;196H1[1;91H[?25h[?25l[46m[[mi[46m][m[58;196H0[1;90H[?25h[?25l[58;195H89[1;89H[?25h[?25l[58;196H8[1;88H[?25h[?25l[58;196H7[1;87H[?25h[?25l[i][58;196H6[1;86H[?25h[?25l[58;196H5[1;85H[?25h[?25l[58;196H4[1;84H[?25h[?25l[46m[[mi[46m][m[58;196H3[1;83H[?25h[?25l[58;196H2[1;82H[?25h[?25l[58;196H1[1;81H[?25h[?25l[58;196H0[1;80H[?25h[?25l[46m{[mz[i][15C[46m}[m[58;195H79[1;79H[?25h[?25l[58;196H8[1;78H[?25h[?25l[1;58H[46m([17C)[m {[19C}[58;196H7[1;77H[?25h[?25l[58;196H6[1;76H[?25h[?25l[1;58H([17C)[58;196H5[1;75H[?25h[?25l[58;196H4[1;74H[?25h[?25l[58;196H3[1;73H[?25h[?25l[58;196H2[1;72H[?25h[?25l[58;196H1[1;71H[?25h[?25l[58;196H0[1;70H[?25h[?25l[58;195H68[1;68H[?25h[?25l[58;196H7[1;67H[?25h[?25l[58;196H6[1;66H[?25h[?25l[58;196H5[1;65H[?25h[?25l[58;196H4[1;64H[?25h[?25l[58;196H3[1;63H[?25h[?25l[58;196H2[1;62H[?25h[?25l[58;196H1[1;61H[?25h[?25l[58;196H0[1;60H[?25h[?25l[46m([17C)[m[58;195H59[1;59H[?25h[?25l[58;196H8[1;58H[?25h[?25l([17C)[58;196H7[1;57H[?25h[?25l[58;196H6[1;56H[?25h[?25l[58;196H5[1;55H[?25h[?25l[58;196H4[1;54H[?25h[?25l[58;196H3[1;53H[?25h[?25l[58;196H2[1;52H[?25h[?25l[58;196H1[1;51H[?25h[?25l[58;196H0[1;50H[?25h[?25l[58;195H49[1;49H[?25h[?25l[46m{[51C}[m[58;196H8[1;48H[?25h[?25l[58;196H7[1;47H[?25h[?25l[1;13H[46m([31C)[m {[51C}[58;196H6[1;46H[?25h[?25l[58;196H5[1;45H[?25h[?25l[1;13H([31C)[58;196H4[1;44H[?25h[?25l[58;196H3[1;43H[?25h[?25l[58;196H2[1;42H[?25h[?25l[58;196H1[1;41H[?25h[?25l[58;196H0[1;40H[?25h[?25l[58;195H39[1;39H[?25h[?25l[58;196H8[1;38H[?25h[?25l[58;196H7[1;37H[?25h[?25l[58;196H6[1;36H[?25h[?25l[58;196H5[1;35H[?25h[?25l[58;196H4[1;34H[?25h[?25l[58;196H3[1;33H[?25h[?25l[58;196H2[1;32H[?25h[?25l[58;196H1[1;31H[?25h[?25l[58;196H0[1;30H[?25h[?25l[58;195H29[1;29H[?25h[?25l[58;196H8[1;28H[?25h[?25l[58;196H7[1;27H[?25h[?25l[58;196H6[1;26H[?25h[?25l[58;196H4[1;24H[?25h[?25l[58;196H3[1;23H[?25h[?25l[58;196H2[1;22H[?25h[?25l[58;196H1[1;21H[?25h[?25l[58;196H0[1;20H[?25h[?25l[58;195H19[1;19H[?25h[?25l[58;196H8[1;18H[?25h[?25l[58;196H7[1;17H[?25h[?25l[58;196H6[1;16H[?25h[?25l[58;196H5[1;15H[?25h[?25l[46m([31C)[m[58;196H4[1;14H[?25h[?25l[58;196H3[1;13H[?25h[?25l[58;196H4[1;14H[?25h[?25l[1;14H[K[2;1H                [1m[32mint[m* x, [1m[32mint[m* y, [1m[32mint[m* z, [1m[32mint[m len) {[1m[32mint[m i;[1m[33mfor[m (i= [1m[35m0[m; i< len; i++) {z[i] = x[i] * y[i];}}[2;103H[K[1;13H([58;193H2,3-17[2;17H[?25h[?25l[58;195H4-18[2;18H[?25h[?25l[58;195H3-17[2;17H[?25h[?25l[2;9H[1m[32mint[m* x,[6Cy[7Cz[5C len) {[1m[32mint[m i;[1m[33mfor[m (i= [1m[35m0[m; i< len; i++) {z[i] = x[i] * y[i];}}[2;96H[K[58;195H2-9 [2;9H[?25h[?25l[1m[32mint[m* x,[6Cy[7Cz[5C len) {[1m[32mint[m i;[1m[33mfor[m (i= [1m[35m0[m; i< len; i++) {z[i] = x[i] * y[i];}}[2;88H[K[58;195H1  [2;1H[?25h[?25l[1;14H[1m[32mint[m* x, [1m[32mint[m* y, [1m[32mint[m* z, [1m[32mint[m len) {[1m[32mint[m i;[1m[33mfor[m (i= [1m[35m0[m; i< len; i++) {z[i] = x[i] * y[i];}}
[1m[34m~                                                                                                                                                                                                                 [m[1;13H[46m([31C)[m[58;193H1,14[1;14H[?25h[?25l([31C)[58;196H5[1;15H[?25h[?25l[58;196H6[1;16H[?25h[?25l[58;196H7[1;17H[?25h[?25l[58;196H9[1;19H[?25h[?25l[58;195H20[1;20H[?25h[?25l[58;196H1[1;21H[?25h[?25l[58;196H2[1;22H[?25h[?25l[58;196H3[1;23H[?25h[?25l[58;196H4[1;24H[?25h[?25l[58;196H5[1;25H[?25h[?25l[58;196H6[1;26H[?25h[?25l[58;196H7[1;27H[?25h[?25l[58;196H8[1;28H[?25h[?25l[58;196H9[1;29H[?25h[?25l[58;195H30[1;30H[?25h[?25l[58;196H1[1;31H[?25h[?25l[58;196H2[1;32H[?25h[?25l[58;196H3[1;33H[?25h[?25l[58;196H4[1;34H[?25h[?25l[58;196H5[1;35H[?25h[?25l[58;196H6[1;36H[?25h[?25l[58;196H7[1;37H[?25h[?25l[58;196H8[1;38H[?25h[?25l[58;196H9[1;39H[?25h[?25l[58;195H40[1;40H[?25h[?25l[58;196H1[1;41H[?25h[?25l[58;196H2[1;42H[?25h[?25l[58;196H3[1;43H[?25h[?25l[58;196H4[1;44H[?25h[?25l[1;13H[46m([31C)[m[58;196H5[1;45H[?25h[?25l[58;196H6[1;46H[?25h[?25l[1;13H([31C) [46m{[51C}[m[58;196H7[1;47H[?25h[?25l[58;196H8[1;48H[?25h[?25l[1;48H[K[2;1H        [1m[32mint[m i;[1m[33mfor[m (i= [1m[35m0[m; i< len; i++) {z[i] = x[i] * y[i];}}[2;61H[K[1;47H{[58;193H2,2-9[2;9H[?25h[?25l[58;195H3-10[2;10H[?25h[?25l[58;195H4-11[2;11H[?25h[?25l[58;195H5-12[2;12H[?25h[?25l[58;195H6-13[2;13H[?25h[?25l[58;195H7-14[2;14H[?25h[?25l[58;195H8-15[2;15H[?25h[?25l[58;195H9-16[2;16H[?25h[?25l[58;195H10-17[2;17H[?25h[?25l[58;196H1-18[2;18H[?25h[?25l [46m([17C)[m[58;196H2-19[2;19H[?25h[?25l([17C)[58;196H1-18[2;18H[?25h[?25l[58;196H0-17[2;17H[?25h[?25l[58;195H9-16 [2;16H[?25h[?25l[58;195H8-15[2;15H[?25h[?25l[2;15H[K[3;1H        [1m[33mfor[m (i= [1m[35m0[m; i< len; i++) {z[i] = x[i] * y[i];}}[3;55H[K[58;193H3,2-9 [3;9H[?25h[?25l[58;195H3-10[3;10H[?25h[?25l[58;195H4-11[3;11H[?25h[?25l[58;195H5-12[3;12H[?25h[?25l [46m([17C)[m[58;195H6-13[3;13H[?25h[?25l[58;195H7-14[3;14H[?25h[?25l([17C)[58;195H8-15[3;15H[?25h[?25l[58;195H9-16[3;16H[?25h[?25l[58;195H10-17[3;17H[?25h[?25l[58;196H1-18[3;18H[?25h[?25l[58;196H2-19[3;19H[?25h[?25l[58;196H3-20[3;20H[?25h[?25l[58;196H4-21[3;21H[?25h[?25l[58;196H5-22[3;22H[?25h[?25l[58;196H6-23[3;23H[?25h[?25l[58;196H7-24[3;24H[?25h[?25l[58;196H8-25[3;25H[?25h[?25l[58;196H9-26[3;26H[?25h[?25l[58;195H20-27[3;27H[?25h[?25l[58;196H1-28[3;28H[?25h[?25l[58;196H2-29[3;29H[?25h[?25l[58;196H3-30[3;30H[?25h[?25l[3;13H[46m([17C)[m[58;196H4-31[3;31H[?25h[?25l[58;196H5-32[3;32H[?25h[?25l[3;13H([17C) [46m{[19C}[m[58;196H6-33[3;33H[?25h[?25l[58;196H7-34[3;34H[?25h[?25l{z[46m[[mi[46m][m[15C}[58;196H8-35[3;35H[?25h[?25l[46m{[mz[i][15C[46m}[m[58;196H7-34[3;34H[?25h[?25l[3;34H[K[4;1H                z[i] = x[i] * y[i];}}[4;38H[K[3;33H{[58;193H4,3-17 [4;17H[?25h[?25lz[46m[[mi[46m][m[58;195H4-18[4;18H[?25h[?25l[58;195H5-19[4;19H[?25h[?25l[58;195H6-20[4;20H[?25h[?25l[58;195H7-21[4;21H[?25h[?25l[i][58;195H8-22[4;22H[?25h[?25l[58;195H9-23[4;23H[?25h[?25l[58;195H10-24[4;24H[?25h[?25lx[46m[[mi[46m][m[58;196H1-25[4;25H[?25h[?25l[58;196H2-26[4;26H[?25h[?25l[58;196H3-27[4;27H[?25h[?25l[58;196H4-28[4;28H[?25h[?25l[i][58;196H5-29[4;29H[?25h[?25l[58;196H6-30[4;30H[?25h[?25l[58;196H7-31[4;31H[?25h[?25ly[46m[[mi[46m][m[58;196H8-32[4;32H[?25h[?25l[58;196H9-33[4;33H[?25h[?25l[58;195H20-34[4;34H[?25h[?25l[58;196H1-35[4;35H[?25h[?25l[3;33H[46m{[m[4;32H[i];[46m}[m[58;196H2-36[4;36H[?25h[?25l[4;36H[K[5;1H        }}[5;11H[K[5;9H[46m}[m[58;193H5,2-9  [5;9H[?25h[?25l[1;47H[46m{[m[3;33H{[5;9H}[46m}[m[58;195H3-10[5;10H[?25h[?25l[5;10H[K[6;1H}[6;2H[K[6;1H[46m}[m[58;193H6,1   [6;1H[?25h[58;1H[K[6;1H[?25l[58;183H^[[6;1H[58;183H  [6;1H[58;193H6,1[11CAll[6;1H[?25h[?25l[58;183H:[6;1H[58;183H[K[58;1H:[?25hWq[?25l[1m[37m[41mE492: Not an editor command: Wq[6;1H[m[58;193H6,1[11CAll[6;1H[?25h[?25l[58;183H:[6;1H[58;1H[K[58;1H:[?25hwq[?25l[?2004l[>4;m"multvec.c" [New] 6L, 110B written[23;2t[23;1t
[?1004l[?2004l[?1l>[?25h[>4;m[?1049l[23;0;0t[?2004h]0;chaehoon@chaehoon: ~/Projects/labs/lab10chaehoon@chaehoon:~/Projects/labs/lab10$ vi practice.c [1@3[C[C[C
[?2004l[?1049h[22;0;0t[>4;2m[?1h=[?2004h[?1004h[1;58r[?12h[?12l[22;2t[22;1t[27m[23m[29m[m[H[2J[?25l[58;1H"practice3.c" [New][2;1H▽[6n[2;1H  [3;1HPzz\[0%m[6n[3;1H           [1;1H[>c]10;?]11;?[2;1H[1m[34m~                                                                                                                                                                                                                 [3;1H~                                                                                                                                                                                                                 [4;1H~                                                                                                                                                                                                                 [5;1H~                                                                                                                                                                                                                 [6;1H~                                                                                                                                                                                                                 [7;1H~                                                                                                                                                                                                                 [8;1H~                                                                                                                                                                                                                 [9;1H~                                                                                                                                                                                                                 [10;1H~                                                                                                                                                                                                                 [11;1H~                                                                                                                                                                                                                 [12;1H~                                                                                                                                                                                                                 [13;1H~                                                                                                                                                                                                                 [14;1H~                                                                                                                                                                                                                 [15;1H~                                                                                                                                                                                                                 [16;1H~                                                                                                                                                                                                                 [17;1H~                                                                                                                                                                                                                 [18;1H~                                                                                                                                                                                                                 [19;1H~                                                                                                                                                                                                                 [20;1H~                                                                                                                                                                                                                 [21;1H~                                                                                                                                                                                                                 [22;1H~                                                                                                                                                                                                                 [23;1H~                                                                                                                                                                                                                 [24;1H~                                                                                                                                                                                                                 [25;1H~                                                                                                                                                                                                                 [26;1H~                                                                                                                                                                                                                 [27;1H~                                                                                                                                                                                                                 [28;1H~                                                                                                                                                                                                                 [29;1H~                                                                                                                                                                                                                 [30;1H~                                                                                                                                                                                                                 [31;1H~                                                                                                                                                                                                                 [32;1H~                                                                                                                                                                                                                 [33;1H~                                                                                                                                                                                                                 [34;1H~                                                                                                                                                                                                                 [35;1H~                                                                                                                                                                                                                 [36;1H~                                                                                                                                                                                                                 [37;1H~                                                                                                                                                                                                                 [38;1H~                                                                                                                                                                                                                 [39;1H~                                                                                                                                                                                                                 [40;1H~                                                                                                                                                                                                                 [41;1H~                                                                                                                                                                                                                 [42;1H~                                                                                                                                                                                                                 [43;1H~                                                                                                                                                                                                                 [44;1H~                                                                                                                                                                                                                 [45;1H~                                                                                                                                                                                                                 [46;1H~                                                                                                                                                                                                                 [47;1H~                                                                                                                                                                                                                 [48;1H~                                                                                                                                                                                                                 [49;1H~                                                                                                                                                                                                                 [50;1H~                                                                                                                                                                                                                 [51;1H~                                                                                                                                                                                                                 [52;1H~                                                                                                                                                                                                                 [53;1H~                                                                                                                                                                                                                 [54;1H~                                                                                                                                                                                                                 [55;1H~                                                                                                                                                                                                                 [56;1H~                                                                                                                                                                                                                 [57;1H~                                                                                                                                                                                                                 [m[58;193H0,0-1[9CAll[1;1H[?25h[?12$p[?25l[58;183H0[1;1H[58;184H0[1;1H[58;185H0[1;1H[58;186H/[1;1H[58;187H0[1;1H[58;188H0[1;1H[58;189H0[1;1H[58;190H0[1;1H[58;191H/[1;1H[58;192H0[1;1H[58;183H          [1;1H[27m[23m[29m[m[H[2J[2;1H[1m[34m~                                                                                                                                                                                                                 [3;1H~                                                                                                                                                                                                                 [4;1H~                                                                                                                                                                                                                 [5;1H~                                                                                                                                                                                                                 [6;1H~                                                                                                                                                                                                                 [7;1H~                                                                                                                                                                                                                 [8;1H~                                                                                                                                                                                                                 [9;1H~                                                                                                                                                                                                                 [10;1H~                                                                                                                                                                                                                 [11;1H~                                                                                                                                                                                                                 [12;1H~                                                                                                                                                                                                                 [13;1H~                                                                                                                                                                                                                 [14;1H~                                                                                                                                                                                                                 [15;1H~                                                                                                                                                                                                                 [16;1H~                                                                                                                                                                                                                 [17;1H~                                                                                                                                                                                                                 [18;1H~                                                                                                                                                                                                                 [19;1H~                                                                                                                                                                                                                 [20;1H~                                                                                                                                                                                                                 [21;1H~                                                                                                                                                                                                                 [22;1H~                                                                                                                                                                                                                 [23;1H~                                                                                                                                                                                                                 [24;1H~                                                                                                                                                                                                                 [25;1H~                                                                                                                                                                                                                 [26;1H~                                                                                                                                                                                                                 [27;1H~                                                                                                                                                                                                                 [28;1H~                                                                                                                                                                                                                 [29;1H~                                                                                                                                                                                                                 [30;1H~                                                                                                                                                                                                                 [31;1H~                                                                                                                                                                                                                 [32;1H~                                                                                                                                                                                                                 [33;1H~                                                                                                                                                                                                                 [34;1H~                                                                                                                                                                                                                 [35;1H~                                                                                                                                                                                                                 [36;1H~                                                                                                                                                                                                                 [37;1H~                                                                                                                                                                                                                 [38;1H~                                                                                                                                                                                                                 [39;1H~                                                                                                                                                                                                                 [40;1H~                                                                                                                                                                                                                 [41;1H~                                                                                                                                                                                                                 [42;1H~                                                                                                                                                                                                                 [43;1H~                                                                                                                                                                                                                 [44;1H~                                                                                                                                                                                                                 [45;1H~                                                                                                                                                                                                                 [46;1H~                                                                                                                                                                                                                 [47;1H~                                                                                                                                                                                                                 [48;1H~                                                                                                                                                                                                                 [49;1H~                                                                                                                                                                                                                 [50;1H~                                                                                                                                                                                                                 [51;1H~                                                                                                                                                                                                                 [52;1H~                                                                                                                                                                                                                 [53;1H~                                                                                                                                                                                                                 [54;1H~                                                                                                                                                                                                                 [55;1H~                                                                                                                                                                                                                 [56;1H~                                                                                                                                                                                                                 [57;1H~                                                                                                                                                                                                                 [m[58;193H0,0-1[9CAll"practice3.c" [New][1;1H[?25h[?25l[58;183Hi[1;1H[58;183H [1;1H[58;1H[1m-- INSERT --[m[58;13H[K[58;193H0,1[11CAll[1;1H[?25h[?25l[1m[34m#include [m[1m[35m<stdio.h>[m[1m[32mvoid[m addvec([1m[32mint[m*, [1m[32mint[m*, [1m[32mint[m*, [1m[32mint[m*);[1m[32mint[m x[[?25h[?25l] = {[1m[35m1[m, [1m[35m2[m};[1m[32mint[m y[] = {[1m[35m3[m, [1m[35m4[m};[1m[32mint[m z[[1m[35m2[m];[1m[32mint[m main([1m[32mvoid[m) {addvec(x, y,[?25h[?25l z, [1m[35m2[m);[1m[33mreturn[m [1m[35m0[m;}[1;113H[46m{[28C}[m[58;193H1,143[1;143H[?25h[?25l[58;197H2[1;142H[?25h[?25l[1;113H{[28C}[58;197H1[1;141H[?25h[?25l[58;197H0[1;140H[?25h[?25l[58;196H39[1;139H[?25h[?25l[58;197H8[1;138H[?25h[?25l[58;197H7[1;137H[?25h[?25l[58;197H6[1;136H[?25h[?25l[58;197H5[1;135H[?25h[?25l[58;197H4[1;134H[?25h[?25l[58;197H3[1;133H[?25h[?25l[1;120H[46m([10C)[m[58;197H2[1;132H[?25h[?25l[58;197H1[1;131H[?25h[?25l[1;120H([10C)[58;197H0[1;130H[?25h[?25l[58;196H29[1;129H[?25h[?25l[58;197H8[1;128H[?25h[?25l[58;197H7[1;127H[?25h[?25l[58;197H6[1;126H[?25h[?25l[58;197H5[1;125H[?25h[?25l[58;197H4[1;124H[?25h[?25l[58;197H3[1;123H[?25h[?25l[58;197H2[1;122H[?25h[?25l[46m([10C)[m[58;197H1[1;121H[?25h[?25l[58;197H0[1;120H[?25h[?25l([10C)[58;196H19[1;119H[?25h[?25l[58;197H8[1;118H[?25h[?25l[58;197H7[1;117H[?25h[?25l[58;197H6[1;116H[?25h[?25l[58;197H5[1;115H[?25h[?25l[46m{[28C}[m[58;197H4[1;114H[?25h[?25l[58;197H3[1;113H[?25h[?25l[1;106H[46m([4C)[m {[28C}[58;197H2[1;112H[?25h[?25l[58;197H1[1;111H[?25h[?25l([4C)[58;197H0[1;110H[?25h[?25l[58;196H09[1;109H[?25h[?25l[58;197H8[1;108H[?25h[?25l[46m([4C)[m[58;197H7[1;107H[?25h[?25l[58;197H6[1;106H[?25h[?25l([4C)[58;197H4[1;104H[?25h[?25l[58;197H3[1;103H[?25h[?25l[58;197H2[1;102H[?25h[?25l[58;197H1[1;101H[?25h[?25l[58;197H0[1;100H[?25h[?25l[58;195H99 [1;99H[?25h[?25l[58;196H8[1;98H[?25h[?25l[46m[[1C][m[58;196H7[1;97H[?25h[?25l[58;196H6[1;96H[?25h[?25l[58;196H5[1;95H[?25h[?25l[58;196H4[1;94H[?25h[?25l[[1C][58;196H3[1;93H[?25h[?25l[58;196H2[1;92H[?25h[?25l[58;196H1[1;91H[?25h[?25l[58;196H0[1;90H[?25h[?25l[58;195H89[1;89H[?25h[?25l[1;82H[46m{[4C}[m[58;196H8[1;88H[?25h[?25l[58;196H7[1;87H[?25h[?25l{[4C}[58;196H6[1;86H[?25h[?25l[58;196H5[1;85H[?25h[?25l[58;196H4[1;84H[?25h[?25l[46m{[4C}[m[58;196H3[1;83H[?25h[?25l[58;196H2[1;82H[?25h[?25l{[4C}[58;196H1[1;81H[?25h[?25l[58;196H0[1;80H[?25h[?25l[46m[][m[58;195H79[1;79H[?25h[?25l[58;196H8[1;78H[?25h[?25l[58;196H7[1;77H[?25h[?25l[][58;196H6[1;76H[?25h[?25l[58;196H5[1;75H[?25h[?25l[58;196H4[1;74H[?25h[?25l[58;196H3[1;73H[?25h[?25l[58;196H2[1;72H[?25h[?25l[1;65H[46m{[4C}[m[58;196H1[1;71H[?25h[?25l[58;196H0[1;70H[?25h[?25l{[4C}[58;195H69[1;69H[?25h[?25l[58;196H8[1;68H[?25h[?25l[58;196H7[1;67H[?25h[?25l[46m{[4C}[m[58;196H6[1;66H[?25h[?25l[58;196H5[1;65H[?25h[?25l{[4C}[58;196H4[1;64H[?25h[?25l[58;196H3[1;63H[?25h[?25l[46m[][m[58;196H2[1;62H[?25h[?25l[58;196H1[1;61H[?25h[?25l[58;196H0[1;60H[?25h[?25l[][58;195H59[1;59H[?25h[?25l[58;196H8[1;58H[?25h[?25l[58;196H7[1;57H[?25h[?25l[58;196H6[1;56H[?25h[?25l[58;196H5[1;55H[?25h[?25l[1;30H[46m([22C)[m[58;196H4[1;54H[?25h[?25l[58;196H3[1;53H[?25h[?25l[1;30H([22C)[58;196H2[1;52H[?25h[?25l[1;30H[46m([22C)[m[58;196H3[1;53H[?25h[?25l[1;30H([22C)[58;196H2[1;52H[?25h[?25l[58;196H1[1;51H[?25h[?25l[58;196H0[1;50H[?25h[?25l[58;195H49[1;49H[?25h[?25l[58;196H8[1;48H[?25h[?25l[58;196H7[1;47H[?25h[?25l[58;196H6[1;46H[?25h[?25l[58;196H5[1;45H[?25h[?25l[58;196H4[1;44H[?25h[?25l[58;196H3[1;43H[?25h[?25l[58;196H2[1;42H[?25h[?25l[58;196H1[1;41H[?25h[?25l[58;196H0[1;40H[?25h[?25l[58;195H39[1;39H[?25h[?25l[58;196H8[1;38H[?25h[?25l[58;196H7[1;37H[?25h[?25l[58;196H6[1;36H[?25h[?25l[58;196H5[1;35H[?25h[?25l[58;196H4[1;34H[?25h[?25l[58;196H3[1;33H[?25h[?25l[58;196H2[1;32H[?25h[?25l[46m([22C)[m[58;196H1[1;31H[?25h[?25l[58;196H0[1;30H[?25h[?25l([22C)[58;195H29[1;29H[?25h[?25l[58;196H8[1;28H[?25h[?25l[58;196H7[1;27H[?25h[?25l[58;196H6[1;26H[?25h[?25l[58;196H5[1;25H[?25h[?25l[58;196H4[1;24H[?25h[?25l[58;196H3[1;23H[?25h[?25l[58;196H2[1;22H[?25h[?25l[58;196H1[1;21H[?25h[?25l[58;196H0[1;20H[?25h[?25l[58;195H19[1;19H[?25h[?25l[1;19H[K[2;1H[1m[32mvoid[m addvec([1m[32mint[m*, [1m[32mint[m*, [1m[32mint[m*, [1m[32mint[m*);[1m[32mint[m x[] = {[1m[35m1[m, [1m[35m2[m};[1m[32mint[m y[] = {[1m[35m3[m, [1m[35m4[m};[1m[32mint[m z[[1m[35m2[m];[1m[32mint[m main([1m[32mvoid[m) {addvec(x, y, z, [1m[35m2[m);[1m[33mreturn[m [1m[35m0[m;}[2;125H[K[58;193H2,1 [2;1H[?25h[?25l[2;1H[K[3;1H[1m[32mvoid[m addvec([1m[32mint[m*, [1m[32mint[m*, [1m[32mint[m*, [1m[32mint[m*);[1m[32mint[m x[] = {[1m[35m1[m, [1m[35m2[m};[1m[32mint[m y[] = {[1m[35m3[m, [1m[35m4[m};[1m[32mint[m z[[1m[35m2[m];[1m[32mint[m main([1m[32mvoid[m) {addvec(x, y, z, [1m[35m2[m);[1m[33mreturn[m [1m[35m0[m;}[3;125H[K[58;193H3[3;1H[?25h[?25l[58;195H2[3;2H[?25h[?25l[58;195H3[3;3H[?25h[?25l[58;195H4[3;4H[?25h[?25l[58;195H5[3;5H[?25h[?25l[58;195H6[3;6H[?25h[?25l[58;195H7[3;7H[?25h[?25l[58;195H8[3;8H[?25h[?25l[58;195H9[3;9H[?25h[?25l[58;195H10[3;10H[?25h[?25l[58;196H1[3;11H[?25h[?25lc[46m([22C)[m[58;196H2[3;12H[?25h[?25l[58;196H3[3;13H[?25h[?25l([22C)[58;196H4[3;14H[?25h[?25l[58;196H5[3;15H[?25h[?25l[58;196H6[3;16H[?25h[?25l[58;196H7[3;17H[?25h[?25l[58;196H8[3;18H[?25h[?25l[58;196H9[3;19H[?25h[?25l[58;195H20[3;20H[?25h[?25l[58;196H1[3;21H[?25h[?25l[58;196H2[3;22H[?25h[?25l[58;196H3[3;23H[?25h[?25l[58;196H4[3;24H[?25h[?25l[58;196H5[3;25H[?25h[?25l[58;196H6[3;26H[?25h[?25l[58;196H7[3;27H[?25h[?25l[58;196H8[3;28H[?25h[?25l[58;196H9[3;29H[?25h[?25l[58;195H30[3;30H[?25h[?25l[58;196H1[3;31H[?25h[?25l[58;196H2[3;32H[?25h[?25l[58;196H3[3;33H[?25h[?25l[58;196H4[3;34H[?25h[?25l[3;12H[46m([22C)[m[58;196H5[3;35H[?25h[?25l[58;196H6[3;36H[?25h[?25l[3;12H([22C)[58;196H7[3;37H[?25h[?25l[58;196H8[3;38H[?25h[?25l[58;196H9[3;39H[?25h[?25l[58;196H8[3;38H[?25h[?25l[58;196H7[3;37H[?25h[?25l[3;37H[K[4;1H[1m[32mint[m x[] = {[1m[35m1[m, [1m[35m2[m};[1m[32mint[m y[] = {[1m[35m3[m, [1m[35m4[m};[1m[32mint[m z[[1m[35m2[m];[1m[32mint[m main([1m[32mvoid[m) {addvec(x, y, z, [1m[35m2[m);[1m[33mreturn[m [1m[35m0[m;}[4;89H[K[58;193H4,1 [4;1H[?25h[?25l[4;1H[K[5;1H[1m[32mint[m x[] = {[1m[35m1[m, [1m[35m2[m};[1m[32mint[m y[] = {[1m[35m3[m, [1m[35m4[m};[1m[32mint[m z[[1m[35m2[m];[1m[32mint[m main([1m[32mvoid[m) {addvec(x, y, z, [1m[35m2[m);[1m[33mreturn[m [1m[35m0[m;}[5;89H[K[58;193H5[5;1H[?25h[?25l[58;195H2[5;2H[?25h[?25l[58;195H3[5;3H[?25h[?25l[58;195H4[5;4H[?25h[?25l[58;195H5[5;5H[?25h[?25lx[46m[][m[58;195H6[5;6H[?25h[?25l[58;195H7[5;7H[?25h[?25l[58;195H8[5;8H[?25h[?25l[][58;195H9[5;9H[?25h[?25l[58;195H10[5;10H[?25h[?25l [46m{[4C}[m[58;196H1[5;11H[?25h[?25l[58;196H2[5;12H[?25h[?25l{[4C}[58;196H3[5;13H[?25h[?25l[58;196H4[5;14H[?25h[?25l[58;196H5[5;15H[?25h[?25l[46m{[4C}[m[58;196H6[5;16H[?25h[?25l[58;196H7[5;17H[?25h[?25l{[4C}[58;196H8[5;18H[?25h[?25l[58;196H9[5;19H[?25h[?25l[58;195H20[5;20H[?25h[?25l[58;196H1[5;21H[?25h[?25l[58;196H0[5;20H[?25h[?25l[58;195H19[5;19H[?25h[?25l[58;196H8[5;18H[?25h[?25l[5;18H[K[6;1H[1m[32mint[m y[] = {[1m[35m3[m, [1m[35m4[m};[1m[32mint[m z[[1m[35m2[m];[1m[32mint[m main([1m[32mvoid[m) {addvec(x, y, z, [1m[35m2[m);[1m[33mreturn[m [1m[35m0[m;}[6;72H[K[58;193H6,1 [6;1H[?25h[?25l[58;195H2[6;2H[?25h[?25l[58;195H3[6;3H[?25h[?25l[58;195H4[6;4H[?25h[?25l[58;195H5[6;5H[?25h[?25ly[46m[][m[58;195H6[6;6H[?25h[?25l[58;195H7[6;7H[?25h[?25l[58;195H8[6;8H[?25h[?25l[][58;195H9[6;9H[?25h[?25l[58;195H10[6;10H[?25h[?25l [46m{[4C}[m[58;196H1[6;11H[?25h[?25l[58;196H2[6;12H[?25h[?25l{[4C}[58;196H3[6;13H[?25h[?25l[58;196H4[6;14H[?25h[?25l[58;196H5[6;15H[?25h[?25l[46m{[4C}[m[58;196H6[6;16H[?25h[?25l[58;196H7[6;17H[?25h[?25l{[4C}[58;196H8[6;18H[?25h[?25l[58;196H9[6;19H[?25h[?25l[58;196H8[6;18H[?25h[?25l[6;18H[K[7;1H[1m[32mint[m z[[1m[35m2[m];[1m[32mint[m main([1m[32mvoid[m) {addvec(x, y, z, [1m[35m2[m);[1m[33mreturn[m [1m[35m0[m;}[7;55H[K[58;193H7,1 [7;1H[?25h[?25l[58;195H2[7;2H[?25h[?25l[58;195H3[7;3H[?25h[?25l[58;195H4[7;4H[?25h[?25l[58;195H5[7;5H[?25h[?25lz[46m[[1C][m[58;195H6[7;6H[?25h[?25l[58;195H7[7;7H[?25h[?25l[58;195H8[7;8H[?25h[?25l[58;195H9[7;9H[?25h[?25l[[1C][58;195H10[7;10H[?25h[?25l[58;196H1[7;11H[?25h[?25l[58;196H2[7;12H[?25h[?25l[58;196H1[7;11H[?25h[?25l[58;196H0[7;10H[?25h[?25l[7;10H[K[8;1H[1m[32mint[m main([1m[32mvoid[m) {addvec(x, y, z, [1m[35m2[m);[1m[33mreturn[m [1m[35m0[m;}[8;46H[K[58;193H8,1 [8;1H[?25h[?25l[8;1H[K[9;1H[1m[32mint[m main([1m[32mvoid[m) {addvec(x, y, z, [1m[35m2[m);[1m[33mreturn[m [1m[35m0[m;}[9;46H[K[58;193H9[9;1H[?25h[?25l[58;195H2[9;2H[?25h[?25l[58;195H3[9;3H[?25h[?25l[58;195H4[9;4H[?25h[?25l[58;195H5[9;5H[?25h[?25l[58;195H6[9;6H[?25h[?25l[58;195H7[9;7H[?25h[?25l[58;195H8[9;8H[?25h[?25ln[46m([4C)[m[58;195H9[9;9H[?25h[?25l[58;195H10[9;10H[?25h[?25l([4C)[58;196H1[9;11H[?25h[?25l[58;196H2[9;12H[?25h[?25l[58;196H3[9;13H[?25h[?25l[46m([4C)[m[58;196H4[9;14H[?25h[?25l[58;196H5[9;15H[?25h[?25l([4C) [46m{[28C}[m[58;196H6[9;16H[?25h[?25l[58;196H7[9;17H[?25h[?25l{[28C}[58;196H8[9;18H[?25h[?25l[58;196H9[9;19H[?25h[?25l[58;196H8[9;18H[?25h[?25l[46m{[28C}[m[58;196H7[9;17H[?25h[?25l[9;17H[K[10;1H        addvec(x, y, z, [1m[35m2[m);[1m[33mreturn[m [1m[35m0[m;}[10;38H[K[9;16H{[58;193H10,2-9[10;9H[?25h[?25l[58;196H3-10[10;10H[?25h[?25l[58;196H4-11[10;11H[?25h[?25l[58;196H5-12[10;12H[?25h[?25l[58;196H6-13[10;13H[?25h[?25l[58;196H7-14[10;14H[?25h[?25lc[46m([10C)[m[58;196H8-15[10;15H[?25h[?25l[58;196H9-16[10;16H[?25h[?25l([10C)[58;196H10-17[10;17H[?25h[?25l[58;197H1-18[10;18H[?25h[?25l[58;197H2-19[10;19H[?25h[?25l[58;197H3-20[10;20H[?25h[?25l[58;197H4-21[10;21H[?25h[?25l[58;197H5-22[10;22H[?25h[?25l[58;197H6-23[10;23H[?25h[?25l[58;197H7-24[10;24H[?25h[?25l[58;197H8-25[10;25H[?25h[?25l[10;15H[46m([10C)[m[58;197H9-26[10;26H[?25h[?25l[58;196H20-27[10;27H[?25h[?25l[10;15H([10C)[58;197H1-28[10;28H[?25h[?25l[58;197H2-29[10;29H[?25h[?25l[58;197H1-28[10;28H[?25h[?25l[10;28H[K[11;1H        [1m[33mreturn[m [1m[35m0[m;}[11;19H[K[58;194H1,2-9  [11;9H[?25h[?25l[58;196H3-10[11;10H[?25h[?25l[58;196H4-11[11;11H[?25h[?25l[58;196H5-12[11;12H[?25h[?25l[58;196H6-13[11;13H[?25h[?25l[58;196H7-14[11;14H[?25h[?25l[58;196H8-15[11;15H[?25h[?25l[58;196H9-16[11;16H[?25h[?25l[58;196H10-17[11;17H[?25h[?25l[9;16H[46m{[11;18H}[m[58;197H1-18[11;18H[?25h[?25l[11;18H[K[12;1H}[12;2H[K[12;1H[46m}[m[58;194H2,1    [12;1H[?25h[58;1H[K[12;1H[?25l[58;183H^[[12;1H[58;183H  [12;1H[58;193H12,1[10CAll[12;1H[?25h[?25l[58;183H:[12;1H[58;183H[K[58;1H:[?25hwq[?25l[?2004l[>4;m"practice3.c" [New] 12L, 156B written[23;2t[23;1t
[?1004l[?2004l[?1l>[?25h[>4;m[?1049l[23;0;0t[?2004h]0;chaehoon@chaehoon: ~/Projects/labs/lab10chaehoon@chaehoon:~/Projects/labs/lab10$ gcc -c addvec.c multvec.c 
[?2004l[?2004h]0;chaehoon@chaehoon: ~/Projects/labs/lab10chaehoon@chaehoon:~/Projects/labs/lab10$ [7marrslibvector.aaddvec.omultvec.o[27marrslibvector.aaddvec.omultvec.o
[?2004larrslibvector.aaddvec.omultvec.o: command not found
[?2004h]0;chaehoon@chaehoon: ~/Projects/labs/lab10chaehoon@chaehoon:~/Projects/labs/lab10$ arrslibvector.aaddvec.omultvec.o[C[C rslibvector.aaddvec.omultvec.o[C[C libvector.aaddvec.omultvec.o[C[C[C[C[C[C[C[C[C[C[C[C[C[C addvec.omultvec.o[C[C[C[C[C[C[C[C[C multvec.o[C[C[C[C[C[C[C[C[C
[?2004lar: creating libvector.a
[?2004h]0;chaehoon@chaehoon: ~/Projects/labs/lab10chaehoon@chaehoon:~/Projects/labs/lab10$ [7mobjdump-d libvector.a[27mobjdump-d libvector.a
[?2004lobjdump-d: command not found
[?2004h]0;chaehoon@chaehoon: ~/Projects/labs/lab10chaehoon@chaehoon:~/Projects/labs/lab10$ objdump-d libvector.a[C[C[1@ [C[C[C[C[C[C[C[C[C[C[C[C[C[C
[?2004lIn archive libvector.a:

addvec.o:     file format elf64-x86-64


Disassembly of section .text:

0000000000000000 <addvec>:
   0:	f3 0f 1e fa          	endbr64 
   4:	55                   	push   %rbp
   5:	48 89 e5             	mov    %rsp,%rbp
   8:	48 89 7d e8          	mov    %rdi,-0x18(%rbp)
   c:	48 89 75 e0          	mov    %rsi,-0x20(%rbp)
  10:	48 89 55 d8          	mov    %rdx,-0x28(%rbp)
  14:	89 4d d4             	mov    %ecx,-0x2c(%rbp)
  17:	c7 45 fc 00 00 00 00 	movl   $0x0,-0x4(%rbp)
  1e:	eb 48                	jmp    68 <addvec+0x68>
  20:	8b 45 fc             	mov    -0x4(%rbp),%eax
  23:	48 98                	cltq   
  25:	48 8d 14 85 00 00 00 	lea    0x0(,%rax,4),%rdx
  2c:	00 
  2d:	48 8b 45 e8          	mov    -0x18(%rbp),%rax
  31:	48 01 d0             	add    %rdx,%rax
  34:	8b 08                	mov    (%rax),%ecx
  36:	8b 45 fc             	mov    -0x4(%rbp),%eax
  39:	48 98                	cltq   
  3b:	48 8d 14 85 00 00 00 	lea    0x0(,%rax,4),%rdx
  42:	00 
  43:	48 8b 45 e0          	mov    -0x20(%rbp),%rax
  47:	48 01 d0             	add    %rdx,%rax
  4a:	8b 10                	mov    (%rax),%edx
  4c:	8b 45 fc             	mov    -0x4(%rbp),%eax
  4f:	48 98                	cltq   
  51:	48 8d 34 85 00 00 00 	lea    0x0(,%rax,4),%rsi
  58:	00 
  59:	48 8b 45 d8          	mov    -0x28(%rbp),%rax
  5d:	48 01 f0             	add    %rsi,%rax
  60:	01 ca                	add    %ecx,%edx
  62:	89 10                	mov    %edx,(%rax)
  64:	83 45 fc 01          	addl   $0x1,-0x4(%rbp)
  68:	8b 45 fc             	mov    -0x4(%rbp),%eax
  6b:	3b 45 d4             	cmp    -0x2c(%rbp),%eax
  6e:	7c b0                	jl     20 <addvec+0x20>
  70:	90                   	nop
  71:	90                   	nop
  72:	5d                   	pop    %rbp
  73:	c3                   	ret    

multvec.o:     file format elf64-x86-64


Disassembly of section .text:

0000000000000000 <multvec>:
   0:	f3 0f 1e fa          	endbr64 
   4:	55                   	push   %rbp
   5:	48 89 e5             	mov    %rsp,%rbp
   8:	48 89 7d e8          	mov    %rdi,-0x18(%rbp)
   c:	48 89 75 e0          	mov    %rsi,-0x20(%rbp)
  10:	48 89 55 d8          	mov    %rdx,-0x28(%rbp)
  14:	89 4d d4             	mov    %ecx,-0x2c(%rbp)
  17:	c7 45 fc 00 00 00 00 	movl   $0x0,-0x4(%rbp)
  1e:	eb 4a                	jmp    6a <multvec+0x6a>
  20:	8b 45 fc             	mov    -0x4(%rbp),%eax
  23:	48 98                	cltq   
  25:	48 8d 14 85 00 00 00 	lea    0x0(,%rax,4),%rdx
  2c:	00 
  2d:	48 8b 45 e8          	mov    -0x18(%rbp),%rax
  31:	48 01 d0             	add    %rdx,%rax
  34:	8b 08                	mov    (%rax),%ecx
  36:	8b 45 fc             	mov    -0x4(%rbp),%eax
  39:	48 98                	cltq   
  3b:	48 8d 14 85 00 00 00 	lea    0x0(,%rax,4),%rdx
  42:	00 
  43:	48 8b 45 e0          	mov    -0x20(%rbp),%rax
  47:	48 01 d0             	add    %rdx,%rax
  4a:	8b 00                	mov    (%rax),%eax
  4c:	8b 55 fc             	mov    -0x4(%rbp),%edx
  4f:	48 63 d2             	movslq %edx,%rdx
  52:	48 8d 34 95 00 00 00 	lea    0x0(,%rdx,4),%rsi
  59:	00 
  5a:	48 8b 55 d8          	mov    -0x28(%rbp),%rdx
  5e:	48 01 f2             	add    %rsi,%rdx
  61:	0f af c1             	imul   %ecx,%eax
  64:	89 02                	mov    %eax,(%rdx)
  66:	83 45 fc 01          	addl   $0x1,-0x4(%rbp)
  6a:	8b 45 fc             	mov    -0x4(%rbp),%eax
  6d:	3b 45 d4             	cmp    -0x2c(%rbp),%eax
  70:	7c ae                	jl     20 <multvec+0x20>
  72:	90                   	nop
  73:	90                   	nop
  74:	5d                   	pop    %rbp
  75:	c3                   	ret    
[?2004h]0;chaehoon@chaehoon: ~/Projects/labs/lab10chaehoon@chaehoon:~/Projects/labs/lab10$ gcc -c practice3.c
[?2004l[01m[Kpractice3.c:[m[K In function ‘[01m[Kmain[m[K’:
[01m[Kpractice3.c:10:25:[m[K [01;35m[Kwarning: [m[Kpassing argument 4 of ‘[01m[Kaddvec[m[K’ makes pointer from integer without a cast [[01;35m[K-Wint-conversion[m[K]
   10 |         addvec(x, y, z, [01;35m[K2[m[K);
      |                         [01;35m[K^[m[K
      |                         [01;35m[K|[m[K
      |                         [01;35m[Kint[m[K
[01m[Kpractice3.c:3:31:[m[K [01;36m[Knote: [m[Kexpected ‘[01m[Kint *[m[K’ but argument is of type ‘[01m[Kint[m[K’
    3 | void addvec(int*, int*, int*, [01;36m[Kint*[m[K);
      |                               [01;36m[K^~~~[m[K
[?2004h]0;chaehoon@chaehoon: ~/Projects/labs/lab10chaehoon@chaehoon:~/Projects/labs/lab10$ [7mgcc–L. lab04.c –lvector–o lab04[27mgcc–L. lab04.c –lvector–o lab04[C[C[1@ [C[C[C[C[C[C[C[C[C[C[C[C[C[C[C[C[C[C[C[C[C[C[C[C[C[C[C[1@ [C[C[C[C[C[C[C[C
[?2004l[01m[Kcc1:[m[K [01;31m[Kfatal error: [m[Klab04.c: No such file or directory
compilation terminated.
[?2004h]0;chaehoon@chaehoon: ~/Projects/labs/lab10chaehoon@chaehoon:~/Projects/labs/lab10$ gcc –L. lab04.c –lvector –o lab04[C[C[C[1P[1P[1P[1P[1P[1@p[7@ractice[1@3[C[C[C[C[C[C[C[C[C[C[C[C[C[C[C[C[C[C[C[C[K[K[K[K[Kpractice3
[?2004l[01m[Kpractice3.c:[m[K In function ‘[01m[Kmain[m[K’:
[01m[Kpractice3.c:10:25:[m[K [01;35m[Kwarning: [m[Kpassing argument 4 of ‘[01m[Kaddvec[m[K’ makes pointer from integer without a cast [[01;35m[K-Wint-conversion[m[K]
   10 |         addvec(x, y, z, [01;35m[K2[m[K);
      |                         [01;35m[K^[m[K
      |                         [01;35m[K|[m[K
      |                         [01;35m[Kint[m[K
[01m[Kpractice3.c:3:31:[m[K [01;36m[Knote: [m[Kexpected ‘[01m[Kint *[m[K’ but argument is of type ‘[01m[Kint[m[K’
    3 | void addvec(int*, int*, int*, [01;36m[Kint*[m[K);
      |                               [01;36m[K^~~~[m[K
/usr/bin/ld: cannot find –L.: No such file or directory
/usr/bin/ld: cannot find –lvector: No such file or directory
/usr/bin/ld: cannot find –o: No such file or directory
/usr/bin/ld: cannot find practice3: No such file or directory
collect2: error: ld returned 1 exit status
[?2004h]0;chaehoon@chaehoon: ~/Projects/labs/lab10chaehoon@chaehoon:~/Projects/labs/lab10$ gcc –L. practice3.c –lvector –o practice3[C[C[C[C[C[C[C[C[C[C[C[C[C[C[C[C[C[C[C[C[C[C[C[C[C[C[C[C[C[C[C